Certificate:
    Data:
        Version: 3 (0x2)
        Serial Number: 268435691 (0x100000eb)
    Signature Algorithm: sha1WithRSAEncryption
        Issuer: C=DE, ST=Hessen, O=privacyidea, CN=CA001
        Validity
            Not Before: Feb 23 15:32:42 2017 GMT
            Not After : Feb 23 15:32:42 2018 GMT
        Subject: C=DE, ST=Hessen, O=privacyidea, CN=requester.localdomain
        Subject Public Key Info:
            Public Key Algorithm: rsaEncryption
                Public-Key: (2048 bit)
                Modulus:
                    00:cd:be:14:4f:fa:ce:01:3f:42:22:1b:1d:9c:af:
                    dd:92:d2:7f:db:6c:b7:3e:39:43:43:6b:13:03:f1:
                    05:f4:07:74:bc:76:69:28:0b:af:19:8e:d7:fc:e3:
                    cd:c6:58:f2:ca:7f:08:6d:53:fc:07:02:44:24:c6:
                    b4:34:4c:8c:04:fe:33:0e:40:e2:20:ba:02:73:5a:
                    f7:f5:4f:63:6e:cc:c6:b6:df:54:1d:37:39:7d:51:
                    36:26:5f:bd:dc:3f:a8:8b:6b:a2:ae:b6:9d:d6:21:
                    e7:df:41:b8:7a:28:2a:68:48:ca:a8:2d:ed:e1:e9:
                    46:5e:5a:72:6d:b4:84:38:87:91:fd:94:11:0b:28:
                    84:c6:c2:2f:2a:fb:01:f9:36:7a:09:75:d1:33:88:
                    3c:73:41:5b:c8:bf:94:89:70:a1:f0:c0:b9:2e:50:
                    53:1e:b1:17:64:69:f4:2d:81:e0:a9:0d:0e:32:e9:
                    ba:55:8a:85:f1:1b:6f:49:79:b4:7f:88:c3:0d:3e:
                    54:88:9b:3d:1f:38:8c:04:f3:ee:6a:63:2b:f5:c6:
                    db:b4:83:aa:c4:78:41:3a:7d:4b:e1:c8:3e:71:ca:
                    1b:61:59:ea:c6:c4:ca:32:5e:c9:e9:bf:12:29:e6:
                    c6:c3:63:fe:a0:55:da:7a:f1:60:98:4d:26:ed:fa:
                    70:2d
                Exponent: 65537 (0x10001)
        X509v3 extensions:
            X509v3 Key Usage: 
                Digital Signature, Key Encipherment
            X509v3 Basic Constraints: 
                CA:FALSE
            Netscape Cert Type: 
                SSL Server
            Netscape Comment: 
                OpenSSL Generated Server Certificate
            X509v3 Subject Key Identifier: 
                53:3F:ED:5D:09:07:B3:65:7B:AB:45:C9:24:5B:09:77:80:0A:96:ED
            X509v3 Authority Key Identifier: 
                keyid:F4:A7:C0:CC:91:46:AF:64:F3:91:F2:27:F8:C8:B2:6F:8A:87:32:73
                DirName:/C=DE/ST=Hessen/O=privacyidea/CN=CA001
                serial:FB:C8:EB:AC:83:CD:12:07

            X509v3 Extended Key Usage: 
                TLS Web Server Authentication
    Signature Algorithm: sha1WithRSAEncryption
         8a:9f:38:03:64:d4:6f:32:c1:f9:b3:8e:cf:89:59:c4:0c:e6:
         66:20:ff:5f:ad:1d:4b:45:2f:07:41:86:8c:fd:4b:1c:1d:73:
         d1:63:b7:b0:4a:27:5f:ef:47:53:20:5d:e5:bf:e5:38:26:e1:
         30:0a:31:31:6e:bf:49:cd:29:0e:92:87:88:61:0f:b2:d8:67:
         da:b7:ea:25:77:ea:e7:28:2d:2a:89:0e:56:c1:9a:49:e1:77:
         02:eb:04:d8:b2:99:20:8a:d4:7f:8c:ab:c2:20:4c:14:e5:c9:
         c2:11:1e:9e:d0:f3:da:d6:3b:79:3e:41:ae:7d:e1:a3:56:cd:
         17:b6:57:fe:19:50:64:5e:bf:00:39:fd:3b:85:95:bb:f9:b2:
         c7:66:b7:0c:0e:72:41:7d:b9:6d:af:7e:70:0c:6f:1c:7d:7d:
         30:31:9d:7c:d5:ca:8a:7d:6f:82:db:87:7f:ef:fb:ae:37:e7:
         69:bd:b4:7d:45:36:01:a0:07:d3:2b:46:94:71:4c:01:69:aa:
         64:4c:8d:b5:cd:21:6f:0d:14:f5:1f:90:c9:e0:4d:bd:42:04:
         03:0b:94:56:38:a3:40:e1:dc:ef:b6:fa:07:bb:f7:f8:86:c1:
         2b:2a:83:70:6a:ec:cc:e7:ce:58:28:14:4f:a3:4a:28:52:d0:
         9b:1e:53:95
-----BEGIN CERTIFICATE-----
MIIEJjCCAw6gAwIBAgIEEAAA6zANBgkqhkiG9w0BAQUFADBEMQswCQYDVQQGEwJE
RTEPMA0GA1UECAwGSGVzc2VuMRQwEgYDVQQKDAtwcml2YWN5aWRlYTEOMAwGA1UE
AwwFQ0EwMDEwHhcNMTcwMjIzMTUzMjQyWhcNMTgwMjIzMTUzMjQyWjBUMQswCQYD
VQQGEwJERTEPMA0GA1UECAwGSGVzc2VuMRQwEgYDVQQKDAtwcml2YWN5aWRlYTEe
MBwGA1UEAwwVcmVxdWVzdGVyLmxvY2FsZG9tYWluMIIBIjANBgkqhkiG9w0BAQEF
AAOCAQ8AMIIBCgKCAQEAzb4UT/rOAT9CIhsdnK/dktJ/22y3PjlDQ2sTA/EF9Ad0
vHZpKAuvGY7X/OPNxljyyn8IbVP8BwJEJMa0NEyMBP4zDkDiILoCc1r39U9jbszG
tt9UHTc5fVE2Jl+93D+oi2uirrad1iHn30G4eigqaEjKqC3t4elGXlpybbSEOIeR
/ZQRCyiExsIvKvsB+TZ6CXXRM4g8c0FbyL+UiXCh8MC5LlBTHrEXZGn0LYHgqQ0O
Mum6VYqF8RtvSXm0f4jDDT5UiJs9HziMBPPuamMr9cbbtIOqxHhBOn1L4cg+ccob
YVnqxsTKMl7J6b8SKebGw2P+oFXaevFgmE0m7fpwLQIDAQABo4IBDjCCAQowCwYD
VR0PBAQDAgWgMAkGA1UdEwQCMAAwEQYJYIZIAYb4QgEBBAQDAgZAMDMGCWCGSAGG
+EIBDQQmFiRPcGVuU1NMIEdlbmVyYXRlZCBTZXJ2ZXIgQ2VydGlmaWNhdGUwHQYD
VR0OBBYEFFM/7V0JB7Nle6tFySRbCXeACpbtMHQGA1UdIwRtMGuAFPSnwMyRRq9k
85HyJ/jIsm+KhzJzoUikRjBEMQswCQYDVQQGEwJERTEPMA0GA1UECAwGSGVzc2Vu
MRQwEgYDVQQKDAtwcml2YWN5aWRlYTEOMAwGA1UEAwwFQ0EwMDGCCQD7yOusg80S
BzATBgNVHSUEDDAKBggrBgEFBQcDATANBgkqhkiG9w0BAQUFAAOCAQEAip84A2TU
bzLB+bOOz4lZxAzmZiD/X60dS0UvB0GGjP1LHB1z0WO3sEonX+9HUyBd5b/lOCbh
MAoxMW6/Sc0pDpKHiGEPsthn2rfqJXfq5ygtKokOVsGaSeF3AusE2LKZIIrUf4yr
wiBMFOXJwhEentDz2tY7eT5Brn3ho1bNF7ZX/hlQZF6/ADn9O4WVu/myx2a3DA5y
QX25ba9+cAxvHH19MDGdfNXKin1vgtuHf+/7rjfnab20fUU2AaAH0ytGlHFMAWmq
ZEyNtc0hbw0U9R+QyeBNvUIEAwuUVjijQOHc77b6B7v3+IbBKyqDcGrszOfOWCgU
T6NKKFLQmx5TlQ==
-----END CERTIFICATE-----
