Certificate:
    Data:
        Version: 3 (0x2)
        Serial Number: 268435672 (0x100000d8)
    Signature Algorithm: sha256WithRSAEncryption
        Issuer: C=DE, ST=Hessen, O=privacyidea, CN=CA001
        Validity
            Not Before: Apr 22 11:50:37 2017 GMT
            Not After : Apr 22 11:50:37 2018 GMT
        Subject: C=DE, ST=Hessen, O=privacyidea, CN=requester.localdomain
        Subject Public Key Info:
            Public Key Algorithm: rsaEncryption
                Public-Key: (2048 bit)
                Modulus:
                    00:cd:be:14:4f:fa:ce:01:3f:42:22:1b:1d:9c:af:
                    dd:92:d2:7f:db:6c:b7:3e:39:43:43:6b:13:03:f1:
                    05:f4:07:74:bc:76:69:28:0b:af:19:8e:d7:fc:e3:
                    cd:c6:58:f2:ca:7f:08:6d:53:fc:07:02:44:24:c6:
                    b4:34:4c:8c:04:fe:33:0e:40:e2:20:ba:02:73:5a:
                    f7:f5:4f:63:6e:cc:c6:b6:df:54:1d:37:39:7d:51:
                    36:26:5f:bd:dc:3f:a8:8b:6b:a2:ae:b6:9d:d6:21:
                    e7:df:41:b8:7a:28:2a:68:48:ca:a8:2d:ed:e1:e9:
                    46:5e:5a:72:6d:b4:84:38:87:91:fd:94:11:0b:28:
                    84:c6:c2:2f:2a:fb:01:f9:36:7a:09:75:d1:33:88:
                    3c:73:41:5b:c8:bf:94:89:70:a1:f0:c0:b9:2e:50:
                    53:1e:b1:17:64:69:f4:2d:81:e0:a9:0d:0e:32:e9:
                    ba:55:8a:85:f1:1b:6f:49:79:b4:7f:88:c3:0d:3e:
                    54:88:9b:3d:1f:38:8c:04:f3:ee:6a:63:2b:f5:c6:
                    db:b4:83:aa:c4:78:41:3a:7d:4b:e1:c8:3e:71:ca:
                    1b:61:59:ea:c6:c4:ca:32:5e:c9:e9:bf:12:29:e6:
                    c6:c3:63:fe:a0:55:da:7a:f1:60:98:4d:26:ed:fa:
                    70:2d
                Exponent: 65537 (0x10001)
        X509v3 extensions:
            X509v3 Key Usage: 
                Digital Signature, Key Encipherment
            X509v3 Basic Constraints: 
                CA:FALSE
            Netscape Cert Type: 
                SSL Server
            Netscape Comment: 
                OpenSSL Generated Server Certificate
            X509v3 Subject Key Identifier: 
                53:3F:ED:5D:09:07:B3:65:7B:AB:45:C9:24:5B:09:77:80:0A:96:ED
            X509v3 Authority Key Identifier: 
                keyid:F4:A7:C0:CC:91:46:AF:64:F3:91:F2:27:F8:C8:B2:6F:8A:87:32:73
                DirName:/C=DE/ST=Hessen/O=privacyidea/CN=CA001
                serial:FB:C8:EB:AC:83:CD:12:07

            X509v3 Extended Key Usage: 
                TLS Web Server Authentication
    Signature Algorithm: sha256WithRSAEncryption
         8a:ae:39:57:c3:ba:66:05:5a:98:6b:2c:3f:b3:eb:50:a9:91:
         b4:04:56:77:51:38:70:94:55:12:90:f0:0c:b4:9d:2e:dc:74:
         39:ec:1c:e4:91:9f:07:b4:89:9a:60:fc:2f:a3:99:6b:05:c0:
         29:60:f6:56:90:d0:f4:9a:4e:97:d3:02:b2:64:4b:5e:1a:ad:
         60:cc:1f:bd:9c:38:e5:c1:d8:88:5d:9f:85:f3:d7:c3:70:18:
         46:0f:c1:7e:7b:92:1a:8d:4c:97:b7:b3:6a:c9:0f:12:1b:8a:
         59:e4:1b:9e:bf:80:c9:2d:b1:82:60:cd:92:2c:7a:54:59:fb:
         5e:c0:d0:d2:6b:1c:51:f5:fa:64:07:8c:42:2c:24:42:f9:cb:
         cc:19:bc:a0:dc:f5:d7:83:dc:ed:ff:72:c3:b2:a9:e6:2e:8c:
         d1:0d:0f:b1:25:f1:2b:d9:82:f4:93:38:33:7c:06:0c:e7:83:
         d9:d7:22:cd:e0:35:d1:a5:e3:18:8f:66:3f:a1:c0:29:8b:99:
         6e:5e:f5:28:91:c6:89:25:36:c6:07:2a:56:23:3f:ea:61:88:
         88:e1:06:d2:c1:6d:65:0d:c2:b1:7d:32:25:c6:5f:21:7a:34:
         82:67:9a:11:0e:d3:11:8a:f4:b8:ad:5a:25:5e:b0:c4:d9:6b:
         93:81:7b:7e
-----BEGIN CERTIFICATE-----
MIIEJjCCAw6gAwIBAgIEEAAA2DANBgkqhkiG9w0BAQsFADBEMQswCQYDVQQGEwJE
RTEPMA0GA1UECAwGSGVzc2VuMRQwEgYDVQQKDAtwcml2YWN5aWRlYTEOMAwGA1UE
AwwFQ0EwMDEwHhcNMTcwNDIyMTE1MDM3WhcNMTgwNDIyMTE1MDM3WjBUMQswCQYD
VQQGEwJERTEPMA0GA1UECAwGSGVzc2VuMRQwEgYDVQQKDAtwcml2YWN5aWRlYTEe
MBwGA1UEAwwVcmVxdWVzdGVyLmxvY2FsZG9tYWluMIIBIjANBgkqhkiG9w0BAQEF
AAOCAQ8AMIIBCgKCAQEAzb4UT/rOAT9CIhsdnK/dktJ/22y3PjlDQ2sTA/EF9Ad0
vHZpKAuvGY7X/OPNxljyyn8IbVP8BwJEJMa0NEyMBP4zDkDiILoCc1r39U9jbszG
tt9UHTc5fVE2Jl+93D+oi2uirrad1iHn30G4eigqaEjKqC3t4elGXlpybbSEOIeR
/ZQRCyiExsIvKvsB+TZ6CXXRM4g8c0FbyL+UiXCh8MC5LlBTHrEXZGn0LYHgqQ0O
Mum6VYqF8RtvSXm0f4jDDT5UiJs9HziMBPPuamMr9cbbtIOqxHhBOn1L4cg+ccob
YVnqxsTKMl7J6b8SKebGw2P+oFXaevFgmE0m7fpwLQIDAQABo4IBDjCCAQowCwYD
VR0PBAQDAgWgMAkGA1UdEwQCMAAwEQYJYIZIAYb4QgEBBAQDAgZAMDMGCWCGSAGG
+EIBDQQmFiRPcGVuU1NMIEdlbmVyYXRlZCBTZXJ2ZXIgQ2VydGlmaWNhdGUwHQYD
VR0OBBYEFFM/7V0JB7Nle6tFySRbCXeACpbtMHQGA1UdIwRtMGuAFPSnwMyRRq9k
85HyJ/jIsm+KhzJzoUikRjBEMQswCQYDVQQGEwJERTEPMA0GA1UECAwGSGVzc2Vu
MRQwEgYDVQQKDAtwcml2YWN5aWRlYTEOMAwGA1UEAwwFQ0EwMDGCCQD7yOusg80S
BzATBgNVHSUEDDAKBggrBgEFBQcDATANBgkqhkiG9w0BAQsFAAOCAQEAiq45V8O6
ZgVamGssP7PrUKmRtARWd1E4cJRVEpDwDLSdLtx0Oewc5JGfB7SJmmD8L6OZawXA
KWD2VpDQ9JpOl9MCsmRLXhqtYMwfvZw45cHYiF2fhfPXw3AYRg/BfnuSGo1Ml7ez
askPEhuKWeQbnr+AyS2xgmDNkix6VFn7XsDQ0mscUfX6ZAeMQiwkQvnLzBm8oNz1
14Pc7f9yw7Kp5i6M0Q0PsSXxK9mC9JM4M3wGDOeD2dcizeA10aXjGI9mP6HAKYuZ
bl71KJHGiSU2xgcqViM/6mGIiOEG0sFtZQ3CsX0yJcZfIXo0gmeaEQ7TEYr0uK1a
JV6wxNlrk4F7fg==
-----END CERTIFICATE-----
