Certificate:
    Data:
        Version: 3 (0x2)
        Serial Number: 268435678 (0x100000de)
    Signature Algorithm: sha256WithRSAEncryption
        Issuer: C=DE, ST=Hessen, O=privacyidea, CN=CA001
        Validity
            Not Before: Apr 22 11:55:06 2017 GMT
            Not After : Apr 22 11:55:06 2018 GMT
        Subject: OU=realm1, CN=cornelius/emailAddress=user@localhost.localdomain
        Subject Public Key Info:
            Public Key Algorithm: rsaEncryption
                Public-Key: (2048 bit)
                Modulus:
                    00:b8:22:65:29:6a:a3:c0:c2:4c:4e:88:3a:d0:ae:
                    37:a7:1e:6e:a1:77:ae:59:5d:6e:9f:db:1b:54:27:
                    bd:7b:fd:e2:f6:d6:8c:d0:77:ce:38:3c:20:ae:bb:
                    e5:ec:de:d2:0a:b6:49:a1:1b:7a:fe:9e:65:ff:94:
                    14:62:55:a8:a4:ef:ef:13:e2:e4:7c:6f:1a:b4:e7:
                    b0:16:36:66:c9:99:2b:e2:86:0f:f4:ce:2c:00:a6:
                    0f:a1:e6:b4:f1:ad:91:09:d3:9c:eb:88:52:54:5f:
                    69:2a:4b:2f:90:0f:09:63:78:5e:cf:ac:0d:e9:cc:
                    01:20:d2:49:89:d3:ea:a5:49:a6:ec:65:02:01:b4:
                    ed:48:19:0d:4e:c8:3c:1d:1f:0c:91:aa:ac:1e:4f:
                    23:66:4d:48:e4:df:da:94:78:bf:c7:22:1d:57:a1:
                    e5:af:66:bd:b2:1a:a2:8f:7b:2a:15:20:2a:8f:8e:
                    de:9f:0f:77:26:e0:a9:36:c8:9b:5b:0d:dc:08:84:
                    ad:6c:6b:75:a7:1f:ee:6a:a3:23:ea:e4:71:76:ad:
                    07:89:cf:37:84:93:c7:f3:37:3a:d8:93:37:cc:d9:
                    65:e5:28:b8:2e:69:43:2a:ae:46:26:1e:d4:0c:67:
                    0b:3f:53:cf:2a:8c:07:68:14:14:01:3e:e4:71:de:
                    f0:4d
                Exponent: 65537 (0x10001)
        X509v3 extensions:
            X509v3 Key Usage: 
                Digital Signature, Key Encipherment
            X509v3 Basic Constraints: 
                CA:FALSE
            Netscape Cert Type: 
                SSL Server
            Netscape Comment: 
                OpenSSL Generated Server Certificate
            X509v3 Subject Key Identifier: 
                A8:43:BD:6D:C0:D1:99:2A:0B:72:D8:EA:75:D3:00:8D:76:2C:15:94
            X509v3 Authority Key Identifier: 
                keyid:F4:A7:C0:CC:91:46:AF:64:F3:91:F2:27:F8:C8:B2:6F:8A:87:32:73
                DirName:/C=DE/ST=Hessen/O=privacyidea/CN=CA001
                serial:FB:C8:EB:AC:83:CD:12:07

            X509v3 Extended Key Usage: 
                TLS Web Server Authentication
    Signature Algorithm: sha256WithRSAEncryption
         a8:c0:51:0a:d0:9c:fe:3d:98:a0:4e:f9:93:de:67:4f:3a:05:
         81:b6:ee:21:d1:b8:c6:f1:e2:1a:63:1e:9e:80:3f:e3:22:d7:
         af:cf:b1:d1:1a:5d:d7:ca:9f:5b:f3:a7:5d:1b:09:02:c4:3b:
         04:0f:f5:5c:a4:58:8b:2a:de:58:5a:19:b9:17:6c:05:6c:82:
         28:af:15:30:f2:1a:77:1e:d6:a3:6b:f7:17:d3:34:2a:02:13:
         67:91:09:40:d3:e5:d3:73:f2:9e:ed:03:7d:db:d7:ab:c1:04:
         a0:9e:e8:1d:f7:ec:8a:f7:a0:ce:77:c1:78:20:e6:bd:9d:3c:
         33:05:32:65:5d:ea:e3:08:55:b1:42:5c:cb:c8:df:66:b1:44:
         cf:56:c0:ff:ec:69:00:d9:5b:e2:f5:8e:3f:3e:f8:e5:83:80:
         d7:3d:4f:f8:a4:38:ae:1b:23:3f:8e:09:1e:87:93:79:0e:9a:
         1e:64:16:8a:88:98:96:0f:64:49:a9:dd:f6:b5:5a:0e:a8:f6:
         f8:c0:42:fb:88:8b:f4:73:86:8c:c1:25:6d:e1:8e:fe:77:6a:
         a5:a7:9e:63:25:ec:48:d8:58:81:1f:d1:41:55:53:ae:39:8f:
         b1:e2:00:b0:19:04:49:e1:3c:a0:c4:b4:0c:9a:a2:07:32:f3:
         1f:ac:aa:27
-----BEGIN CERTIFICATE-----
MIIEIjCCAwqgAwIBAgIEEAAA3jANBgkqhkiG9w0BAQsFADBEMQswCQYDVQQGEwJE
RTEPMA0GA1UECAwGSGVzc2VuMRQwEgYDVQQKDAtwcml2YWN5aWRlYTEOMAwGA1UE
AwwFQ0EwMDEwHhcNMTcwNDIyMTE1NTA2WhcNMTgwNDIyMTE1NTA2WjBQMQ8wDQYD
VQQLDAZyZWFsbTExEjAQBgNVBAMMCWNvcm5lbGl1czEpMCcGCSqGSIb3DQEJARYa
dXNlckBsb2NhbGhvc3QubG9jYWxkb21haW4wggEiMA0GCSqGSIb3DQEBAQUAA4IB
DwAwggEKAoIBAQC4ImUpaqPAwkxOiDrQrjenHm6hd65ZXW6f2xtUJ717/eL21ozQ
d844PCCuu+Xs3tIKtkmhG3r+nmX/lBRiVaik7+8T4uR8bxq057AWNmbJmSvihg/0
ziwApg+h5rTxrZEJ05zriFJUX2kqSy+QDwljeF7PrA3pzAEg0kmJ0+qlSabsZQIB
tO1IGQ1OyDwdHwyRqqweTyNmTUjk39qUeL/HIh1XoeWvZr2yGqKPeyoVICqPjt6f
D3cm4Kk2yJtbDdwIhK1sa3WnH+5qoyPq5HF2rQeJzzeEk8fzNzrYkzfM2WXlKLgu
aUMqrkYmHtQMZws/U88qjAdoFBQBPuRx3vBNAgMBAAGjggEOMIIBCjALBgNVHQ8E
BAMCBaAwCQYDVR0TBAIwADARBglghkgBhvhCAQEEBAMCBkAwMwYJYIZIAYb4QgEN
BCYWJE9wZW5TU0wgR2VuZXJhdGVkIFNlcnZlciBDZXJ0aWZpY2F0ZTAdBgNVHQ4E
FgQUqEO9bcDRmSoLctjqddMAjXYsFZQwdAYDVR0jBG0wa4AU9KfAzJFGr2TzkfIn
+Miyb4qHMnOhSKRGMEQxCzAJBgNVBAYTAkRFMQ8wDQYDVQQIDAZIZXNzZW4xFDAS
BgNVBAoMC3ByaXZhY3lpZGVhMQ4wDAYDVQQDDAVDQTAwMYIJAPvI66yDzRIHMBMG
A1UdJQQMMAoGCCsGAQUFBwMBMA0GCSqGSIb3DQEBCwUAA4IBAQCowFEK0Jz+PZig
TvmT3mdPOgWBtu4h0bjG8eIaYx6egD/jItevz7HRGl3Xyp9b86ddGwkCxDsED/Vc
pFiLKt5YWhm5F2wFbIIorxUw8hp3Htaja/cX0zQqAhNnkQlA0+XTc/Ke7QN929er
wQSgnugd9+yK96DOd8F4IOa9nTwzBTJlXerjCFWxQlzLyN9msUTPVsD/7GkA2Vvi
9Y4/Pvjlg4DXPU/4pDiuGyM/jgkeh5N5DpoeZBaKiJiWD2RJqd32tVoOqPb4wEL7
iIv0c4aMwSVt4Y7+d2qlp55jJexI2FiBH9FBVVOuOY+x4gCwGQRJ4TygxLQMmqIH
MvMfrKon
-----END CERTIFICATE-----
