Certificate:
    Data:
        Version: 3 (0x2)
        Serial Number: 268435676 (0x100000dc)
    Signature Algorithm: sha256WithRSAEncryption
        Issuer: C=DE, ST=Hessen, O=privacyidea, CN=CA001
        Validity
            Not Before: Apr 22 11:51:27 2017 GMT
            Not After : May 12 11:51:27 2019 GMT
        Subject: CN=Steve Test/emailAddress=steve@openssl.org
        Subject Public Key Info:
            Public Key Algorithm: rsaEncryption
                Public-Key: (2048 bit)
                Modulus:
                    00:d2:81:89:20:51:48:0f:73:f4:11:32:24:d5:1f:
                    1c:fd:5c:f5:b6:e6:c5:f0:52:81:dc:d2:af:66:4a:
                    7c:93:31:61:5c:af:d1:6d:06:70:03:60:7c:72:0c:
                    88:dd:49:cd:9e:02:6c:d2:5a:d7:53:0f:f3:da:be:
                    69:64:b5:0f:0c:00:e3:b3:50:47:a3:b3:9b:ba:13:
                    50:d6:58:5a:4b:ab:39:e0:11:ca:0a:27:67:03:78:
                    22:66:6d:92:1e:1b:5c:49:ae:e6:6b:d1:8e:3b:9d:
                    06:d3:c6:ac:4d:53:43:10:ab:e8:96:c1:87:82:97:
                    99:8f:20:d3:99:12:37:31:84:e1:8a:ff:29:03:5f:
                    22:90:3e:7f:9b:e0:20:c1:ad:dc:ae:4c:39:1a:31:
                    96:17:02:8c:b2:d9:b4:0d:20:12:9b:7d:86:54:fd:
                    33:fd:c1:2a:62:46:f8:60:96:cf:6e:01:6f:22:df:
                    13:47:e7:97:ec:05:72:23:a3:62:f8:fa:ef:ac:9c:
                    72:f0:37:cb:2f:37:cf:90:a8:27:51:86:c6:d7:78:
                    08:8f:7e:25:a2:15:70:a2:fb:1c:b6:15:5e:a0:97:
                    8b:81:4c:09:28:8a:27:3b:94:bc:71:db:5b:71:37:
                    9a:2b:16:e0:6f:b5:c9:f5:4b:4f:20:ba:65:cf:af:
                    ad:ad
                Exponent: 65537 (0x10001)
        X509v3 extensions:
            X509v3 Key Usage: 
                Digital Signature, Key Encipherment
            X509v3 Basic Constraints: 
                CA:FALSE
            Netscape Cert Type: 
                SSL Server
            Netscape Comment: 
                OpenSSL Generated Server Certificate
            X509v3 Subject Key Identifier: 
                E5:25:6D:3E:AF:0D:DD:3F:4C:F2:45:19:39:D5:14:DB:7E:9C:C0:AD
            X509v3 Authority Key Identifier: 
                keyid:F4:A7:C0:CC:91:46:AF:64:F3:91:F2:27:F8:C8:B2:6F:8A:87:32:73
                DirName:/C=DE/ST=Hessen/O=privacyidea/CN=CA001
                serial:FB:C8:EB:AC:83:CD:12:07

            X509v3 Extended Key Usage: 
                TLS Web Server Authentication
    Signature Algorithm: sha256WithRSAEncryption
         06:04:d0:eb:e3:eb:ca:e9:b1:96:c9:58:88:8b:db:0c:74:eb:
         aa:c6:9f:0f:f7:93:ec:07:da:57:2b:a2:cc:34:02:87:cf:c5:
         ee:bd:e3:3c:04:79:b7:c0:9c:f6:8a:04:1a:e3:7d:ae:9c:49:
         ab:df:8a:20:e6:6b:1d:68:e0:76:78:47:a7:46:8e:ca:52:15:
         a5:66:ba:05:91:97:e4:1e:06:b0:78:3c:c6:8c:73:8a:45:09:
         ab:20:6c:e9:71:c8:7d:a7:3e:57:3a:1c:a5:ea:99:f8:7e:4f:
         71:82:66:3b:4d:d0:bc:04:58:ab:13:4c:e0:2a:d0:2f:17:81:
         03:bb:3a:40:74:c6:e8:06:a4:6a:55:a0:6e:17:c1:06:88:db:
         e4:1d:f5:9b:d5:10:d9:0f:8e:87:31:b2:d8:ae:9e:db:0a:a0:
         d5:97:f6:78:cb:5f:6e:5e:fe:6e:38:21:4f:0d:1f:13:34:1c:
         8c:63:65:53:c3:42:3e:0f:15:8f:05:b2:a0:42:f0:b8:19:f8:
         3e:10:15:8f:d6:a2:2a:33:dc:7f:e7:83:88:2c:ca:2c:3a:99:
         d5:47:6c:2c:9e:a2:ba:5f:46:06:b6:fc:61:f9:b6:ea:3d:1d:
         3e:4e:98:f9:4c:f0:bc:5f:27:be:81:03:e6:de:1c:2e:01:cd:
         e9:ad:4a:ff
-----BEGIN CERTIFICATE-----
MIIECTCCAvGgAwIBAgIEEAAA3DANBgkqhkiG9w0BAQsFADBEMQswCQYDVQQGEwJE
RTEPMA0GA1UECAwGSGVzc2VuMRQwEgYDVQQKDAtwcml2YWN5aWRlYTEOMAwGA1UE
AwwFQ0EwMDEwHhcNMTcwNDIyMTE1MTI3WhcNMTkwNTEyMTE1MTI3WjA3MRMwEQYD
VQQDDApTdGV2ZSBUZXN0MSAwHgYJKoZIhvcNAQkBFhFzdGV2ZUBvcGVuc3NsLm9y
ZzCCASIwDQYJKoZIhvcNAQEBBQADggEPADCCAQoCggEBANKBiSBRSA9z9BEyJNUf
HP1c9bbmxfBSgdzSr2ZKfJMxYVyv0W0GcANgfHIMiN1JzZ4CbNJa11MP89q+aWS1
DwwA47NQR6Ozm7oTUNZYWkurOeARygonZwN4ImZtkh4bXEmu5mvRjjudBtPGrE1T
QxCr6JbBh4KXmY8g05kSNzGE4Yr/KQNfIpA+f5vgIMGt3K5MORoxlhcCjLLZtA0g
Ept9hlT9M/3BKmJG+GCWz24BbyLfE0fnl+wFciOjYvj676yccvA3yy83z5CoJ1GG
xtd4CI9+JaIVcKL7HLYVXqCXi4FMCSiKJzuUvHHbW3E3misW4G+1yfVLTyC6Zc+v
ra0CAwEAAaOCAQ4wggEKMAsGA1UdDwQEAwIFoDAJBgNVHRMEAjAAMBEGCWCGSAGG
+EIBAQQEAwIGQDAzBglghkgBhvhCAQ0EJhYkT3BlblNTTCBHZW5lcmF0ZWQgU2Vy
dmVyIENlcnRpZmljYXRlMB0GA1UdDgQWBBTlJW0+rw3dP0zyRRk51RTbfpzArTB0
BgNVHSMEbTBrgBT0p8DMkUavZPOR8if4yLJviocyc6FIpEYwRDELMAkGA1UEBhMC
REUxDzANBgNVBAgMBkhlc3NlbjEUMBIGA1UECgwLcHJpdmFjeWlkZWExDjAMBgNV
BAMMBUNBMDAxggkA+8jrrIPNEgcwEwYDVR0lBAwwCgYIKwYBBQUHAwEwDQYJKoZI
hvcNAQELBQADggEBAAYE0Ovj68rpsZbJWIiL2wx066rGnw/3k+wH2lcrosw0AofP
xe694zwEebfAnPaKBBrjfa6cSavfiiDmax1o4HZ4R6dGjspSFaVmugWRl+QeBrB4
PMaMc4pFCasgbOlxyH2nPlc6HKXqmfh+T3GCZjtN0LwEWKsTTOAq0C8XgQO7OkB0
xugGpGpVoG4XwQaI2+Qd9ZvVENkPjocxstiuntsKoNWX9njLX25e/m44IU8NHxM0
HIxjZVPDQj4PFY8FsqBC8LgZ+D4QFY/Woioz3H/ng4gsyiw6mdVHbCyeorpfRga2
/GH5tuo9HT5OmPlM8LxfJ76BA+beHC4BzemtSv8=
-----END CERTIFICATE-----
