Certificate:
    Data:
        Version: 3 (0x2)
        Serial Number: 268435696 (0x100000f0)
    Signature Algorithm: sha1WithRSAEncryption
        Issuer: C=DE, ST=Hessen, O=privacyidea, CN=CA001
        Validity
            Not Before: Feb 23 15:33:12 2017 GMT
            Not After : Feb 23 15:33:12 2018 GMT
        Subject: CN=Steve Test/emailAddress=steve@openssl.org
        Subject Public Key Info:
            Public Key Algorithm: rsaEncryption
                Public-Key: (2048 bit)
                Modulus:
                    00:d2:81:89:20:51:48:0f:73:f4:11:32:24:d5:1f:
                    1c:fd:5c:f5:b6:e6:c5:f0:52:81:dc:d2:af:66:4a:
                    7c:93:31:61:5c:af:d1:6d:06:70:03:60:7c:72:0c:
                    88:dd:49:cd:9e:02:6c:d2:5a:d7:53:0f:f3:da:be:
                    69:64:b5:0f:0c:00:e3:b3:50:47:a3:b3:9b:ba:13:
                    50:d6:58:5a:4b:ab:39:e0:11:ca:0a:27:67:03:78:
                    22:66:6d:92:1e:1b:5c:49:ae:e6:6b:d1:8e:3b:9d:
                    06:d3:c6:ac:4d:53:43:10:ab:e8:96:c1:87:82:97:
                    99:8f:20:d3:99:12:37:31:84:e1:8a:ff:29:03:5f:
                    22:90:3e:7f:9b:e0:20:c1:ad:dc:ae:4c:39:1a:31:
                    96:17:02:8c:b2:d9:b4:0d:20:12:9b:7d:86:54:fd:
                    33:fd:c1:2a:62:46:f8:60:96:cf:6e:01:6f:22:df:
                    13:47:e7:97:ec:05:72:23:a3:62:f8:fa:ef:ac:9c:
                    72:f0:37:cb:2f:37:cf:90:a8:27:51:86:c6:d7:78:
                    08:8f:7e:25:a2:15:70:a2:fb:1c:b6:15:5e:a0:97:
                    8b:81:4c:09:28:8a:27:3b:94:bc:71:db:5b:71:37:
                    9a:2b:16:e0:6f:b5:c9:f5:4b:4f:20:ba:65:cf:af:
                    ad:ad
                Exponent: 65537 (0x10001)
        X509v3 extensions:
            X509v3 Key Usage: 
                Digital Signature, Key Encipherment
            X509v3 Basic Constraints: 
                CA:FALSE
            Netscape Cert Type: 
                SSL Server
            Netscape Comment: 
                OpenSSL Generated Server Certificate
            X509v3 Subject Key Identifier: 
                E5:25:6D:3E:AF:0D:DD:3F:4C:F2:45:19:39:D5:14:DB:7E:9C:C0:AD
            X509v3 Authority Key Identifier: 
                keyid:F4:A7:C0:CC:91:46:AF:64:F3:91:F2:27:F8:C8:B2:6F:8A:87:32:73
                DirName:/C=DE/ST=Hessen/O=privacyidea/CN=CA001
                serial:FB:C8:EB:AC:83:CD:12:07

            X509v3 Extended Key Usage: 
                TLS Web Server Authentication
    Signature Algorithm: sha1WithRSAEncryption
         73:7c:c0:ab:2e:56:fb:60:3e:a5:fc:56:53:13:16:98:7f:c8:
         3b:41:ba:ba:0e:a9:9d:ef:ec:8e:35:c1:9a:33:ff:7d:3f:72:
         9a:bb:0b:b0:3d:25:ee:3c:08:bd:e6:7f:0d:4c:0d:8a:7e:d8:
         14:6b:72:6b:b1:4f:b8:fe:d9:00:c5:84:55:47:87:63:16:df:
         8f:c2:bd:53:a2:ca:22:95:2b:03:00:27:c9:51:1a:9b:0d:86:
         63:98:fa:b2:17:a0:af:56:f0:de:cf:a2:e8:90:c8:c9:4d:aa:
         c5:b9:10:97:8b:2f:cb:fa:72:ea:e4:da:38:11:84:fc:01:42:
         04:d2:9a:e5:e7:ab:00:06:ac:ed:8b:c6:1f:3d:73:c6:ea:33:
         9b:ae:f2:60:aa:31:3c:a6:85:8e:4f:f8:1e:c0:ae:57:90:13:
         fc:f6:93:f4:ca:71:a8:56:c7:a4:21:e4:6e:9f:05:d0:c3:a6:
         0f:92:13:96:d6:41:1c:b5:c2:d6:80:94:b2:3f:cb:bf:36:3d:
         41:bc:60:1d:4b:7b:09:cb:63:20:48:cd:d7:b8:88:92:e3:80:
         bb:92:a1:5d:3a:e9:05:ca:a7:f3:b7:8d:87:7f:51:64:42:bf:
         dd:45:48:dc:e0:44:ea:01:58:82:50:31:dd:2e:fd:e2:7f:90:
         ec:9d:d5:e5
-----BEGIN CERTIFICATE-----
MIIECTCCAvGgAwIBAgIEEAAA8DANBgkqhkiG9w0BAQUFADBEMQswCQYDVQQGEwJE
RTEPMA0GA1UECAwGSGVzc2VuMRQwEgYDVQQKDAtwcml2YWN5aWRlYTEOMAwGA1UE
AwwFQ0EwMDEwHhcNMTcwMjIzMTUzMzEyWhcNMTgwMjIzMTUzMzEyWjA3MRMwEQYD
VQQDDApTdGV2ZSBUZXN0MSAwHgYJKoZIhvcNAQkBFhFzdGV2ZUBvcGVuc3NsLm9y
ZzCCASIwDQYJKoZIhvcNAQEBBQADggEPADCCAQoCggEBANKBiSBRSA9z9BEyJNUf
HP1c9bbmxfBSgdzSr2ZKfJMxYVyv0W0GcANgfHIMiN1JzZ4CbNJa11MP89q+aWS1
DwwA47NQR6Ozm7oTUNZYWkurOeARygonZwN4ImZtkh4bXEmu5mvRjjudBtPGrE1T
QxCr6JbBh4KXmY8g05kSNzGE4Yr/KQNfIpA+f5vgIMGt3K5MORoxlhcCjLLZtA0g
Ept9hlT9M/3BKmJG+GCWz24BbyLfE0fnl+wFciOjYvj676yccvA3yy83z5CoJ1GG
xtd4CI9+JaIVcKL7HLYVXqCXi4FMCSiKJzuUvHHbW3E3misW4G+1yfVLTyC6Zc+v
ra0CAwEAAaOCAQ4wggEKMAsGA1UdDwQEAwIFoDAJBgNVHRMEAjAAMBEGCWCGSAGG
+EIBAQQEAwIGQDAzBglghkgBhvhCAQ0EJhYkT3BlblNTTCBHZW5lcmF0ZWQgU2Vy
dmVyIENlcnRpZmljYXRlMB0GA1UdDgQWBBTlJW0+rw3dP0zyRRk51RTbfpzArTB0
BgNVHSMEbTBrgBT0p8DMkUavZPOR8if4yLJviocyc6FIpEYwRDELMAkGA1UEBhMC
REUxDzANBgNVBAgMBkhlc3NlbjEUMBIGA1UECgwLcHJpdmFjeWlkZWExDjAMBgNV
BAMMBUNBMDAxggkA+8jrrIPNEgcwEwYDVR0lBAwwCgYIKwYBBQUHAwEwDQYJKoZI
hvcNAQEFBQADggEBAHN8wKsuVvtgPqX8VlMTFph/yDtBuroOqZ3v7I41wZoz/30/
cpq7C7A9Je48CL3mfw1MDYp+2BRrcmuxT7j+2QDFhFVHh2MW34/CvVOiyiKVKwMA
J8lRGpsNhmOY+rIXoK9W8N7PouiQyMlNqsW5EJeLL8v6curk2jgRhPwBQgTSmuXn
qwAGrO2Lxh89c8bqM5uu8mCqMTymhY5P+B7ArleQE/z2k/TKcahWx6Qh5G6fBdDD
pg+SE5bWQRy1wtaAlLI/y782PUG8YB1LewnLYyBIzde4iJLjgLuSoV066QXKp/O3
jYd/UWRCv91FSNzgROoBWIJQMd0u/eJ/kOyd1eU=
-----END CERTIFICATE-----
