Certificate:
    Data:
        Version: 3 (0x2)
        Serial Number: 268435686 (0x100000e6)
    Signature Algorithm: sha256WithRSAEncryption
        Issuer: C=DE, ST=Hessen, O=privacyidea, CN=CA001
        Validity
            Not Before: Apr 22 14:16:18 2017 GMT
            Not After : Apr 22 14:16:18 2018 GMT
        Subject: OU=realm1, CN=cornelius/emailAddress=user@localhost.localdomain
        Subject Public Key Info:
            Public Key Algorithm: rsaEncryption
                Public-Key: (2048 bit)
                Modulus:
                    00:ee:c1:9d:5c:dc:f7:59:f8:37:67:5b:4d:81:49:
                    73:98:58:1b:df:c1:a2:f1:4f:68:77:ee:b0:87:34:
                    0f:4e:e9:e4:86:68:82:90:7d:88:7c:75:08:24:b5:
                    03:94:cb:3b:bf:91:c4:f5:8f:32:16:16:d7:6e:71:
                    49:a0:94:e2:cd:c1:6c:d0:f6:da:32:4b:34:f2:b8:
                    94:15:59:7d:d7:84:a3:e8:92:f9:7c:b3:20:79:2b:
                    bc:60:9e:1e:a6:9c:5c:2c:43:9b:3c:3b:1a:c5:3e:
                    51:a7:5e:68:2a:13:6f:11:16:0f:64:e8:ae:19:7d:
                    ff:a2:7f:85:03:03:d5:42:34:b6:9c:ba:65:8d:04:
                    69:e4:c9:3c:00:ed:45:cc:5a:4f:49:66:77:04:d5:
                    8a:18:87:1c:0e:29:9a:a0:7e:c2:e0:81:a9:a6:b7:
                    13:bc:63:a5:00:98:16:d0:0f:ba:71:b3:eb:57:a8:
                    e9:69:55:92:cf:23:1b:62:c9:5b:45:66:6f:62:01:
                    5f:f8:f5:3d:2c:31:59:79:f6:a6:fe:49:db:c7:03:
                    d7:c5:89:46:84:30:f9:42:1f:66:9a:04:5d:7d:25:
                    94:90:0c:75:14:dd:5b:cd:c0:f9:fa:0a:e0:6a:58:
                    9a:1a:b0:71:65:56:68:11:1f:0b:19:3a:5f:3d:43:
                    3c:8d
                Exponent: 65537 (0x10001)
        X509v3 extensions:
            X509v3 Key Usage: 
                Digital Signature, Key Encipherment
            X509v3 Basic Constraints: 
                CA:FALSE
            Netscape Cert Type: 
                SSL Server
            Netscape Comment: 
                OpenSSL Generated Server Certificate
            X509v3 Subject Key Identifier: 
                ED:A7:F7:98:ED:7E:AE:E1:49:E2:5B:A2:9B:3B:F1:5E:8C:7F:7D:B9
            X509v3 Authority Key Identifier: 
                keyid:F4:A7:C0:CC:91:46:AF:64:F3:91:F2:27:F8:C8:B2:6F:8A:87:32:73
                DirName:/C=DE/ST=Hessen/O=privacyidea/CN=CA001
                serial:FB:C8:EB:AC:83:CD:12:07

            X509v3 Extended Key Usage: 
                TLS Web Server Authentication
    Signature Algorithm: sha256WithRSAEncryption
         02:00:e4:f4:93:0c:ef:f2:f7:1c:0c:d4:31:7f:f0:66:a0:a7:
         c4:06:aa:aa:db:0e:f4:79:ed:e7:6b:d0:c9:fb:62:02:86:7a:
         96:fe:b7:08:fb:1c:30:84:18:d6:c8:a4:3a:b7:5e:7f:50:b5:
         97:c5:ba:ae:b8:3b:ef:cf:6a:03:7b:4c:7e:9a:c5:a3:d5:4e:
         7a:8f:b1:32:d6:42:47:e7:e8:10:a4:b7:aa:fd:a0:05:c3:62:
         e1:f6:ae:ed:78:c5:0b:14:5a:86:f7:a9:0a:6b:a7:77:c6:64:
         a4:db:a3:4f:c2:2b:35:24:23:57:32:16:fc:eb:48:f1:e9:d0:
         bd:9b:28:91:d5:4c:c7:4a:d3:d0:7a:dc:b6:6c:10:e5:9e:71:
         1c:29:86:50:dc:58:87:89:f5:3d:98:ce:02:d1:ba:93:f2:8f:
         c5:16:73:2c:96:c8:de:18:9a:8d:53:66:ed:88:39:6f:9d:d6:
         86:b7:db:ea:05:76:f4:f4:c4:70:48:cc:a8:0a:9d:f6:05:c2:
         34:56:3a:e4:24:e9:df:f6:f6:09:f9:8c:ca:b6:49:c2:68:03:
         88:ab:ba:47:ca:80:c9:46:50:a3:e2:a9:65:c2:be:f8:88:26:
         1d:b7:4c:1b:15:f0:4b:09:96:d9:c4:13:10:c1:1f:9d:6c:30:
         26:51:4f:7b
-----BEGIN CERTIFICATE-----
MIIEIjCCAwqgAwIBAgIEEAAA5jANBgkqhkiG9w0BAQsFADBEMQswCQYDVQQGEwJE
RTEPMA0GA1UECAwGSGVzc2VuMRQwEgYDVQQKDAtwcml2YWN5aWRlYTEOMAwGA1UE
AwwFQ0EwMDEwHhcNMTcwNDIyMTQxNjE4WhcNMTgwNDIyMTQxNjE4WjBQMQ8wDQYD
VQQLDAZyZWFsbTExEjAQBgNVBAMMCWNvcm5lbGl1czEpMCcGCSqGSIb3DQEJARYa
dXNlckBsb2NhbGhvc3QubG9jYWxkb21haW4wggEiMA0GCSqGSIb3DQEBAQUAA4IB
DwAwggEKAoIBAQDuwZ1c3PdZ+DdnW02BSXOYWBvfwaLxT2h37rCHNA9O6eSGaIKQ
fYh8dQgktQOUyzu/kcT1jzIWFtducUmglOLNwWzQ9toySzTyuJQVWX3XhKPokvl8
syB5K7xgnh6mnFwsQ5s8OxrFPlGnXmgqE28RFg9k6K4Zff+if4UDA9VCNLacumWN
BGnkyTwA7UXMWk9JZncE1YoYhxwOKZqgfsLggammtxO8Y6UAmBbQD7pxs+tXqOlp
VZLPIxtiyVtFZm9iAV/49T0sMVl59qb+SdvHA9fFiUaEMPlCH2aaBF19JZSQDHUU
3VvNwPn6CuBqWJoasHFlVmgRHwsZOl89QzyNAgMBAAGjggEOMIIBCjALBgNVHQ8E
BAMCBaAwCQYDVR0TBAIwADARBglghkgBhvhCAQEEBAMCBkAwMwYJYIZIAYb4QgEN
BCYWJE9wZW5TU0wgR2VuZXJhdGVkIFNlcnZlciBDZXJ0aWZpY2F0ZTAdBgNVHQ4E
FgQU7af3mO1+ruFJ4luimzvxXox/fbkwdAYDVR0jBG0wa4AU9KfAzJFGr2TzkfIn
+Miyb4qHMnOhSKRGMEQxCzAJBgNVBAYTAkRFMQ8wDQYDVQQIDAZIZXNzZW4xFDAS
BgNVBAoMC3ByaXZhY3lpZGVhMQ4wDAYDVQQDDAVDQTAwMYIJAPvI66yDzRIHMBMG
A1UdJQQMMAoGCCsGAQUFBwMBMA0GCSqGSIb3DQEBCwUAA4IBAQACAOT0kwzv8vcc
DNQxf/BmoKfEBqqq2w70ee3na9DJ+2IChnqW/rcI+xwwhBjWyKQ6t15/ULWXxbqu
uDvvz2oDe0x+msWj1U56j7Ey1kJH5+gQpLeq/aAFw2Lh9q7teMULFFqG96kKa6d3
xmSk26NPwis1JCNXMhb860jx6dC9myiR1UzHStPQety2bBDlnnEcKYZQ3FiHifU9
mM4C0bqT8o/FFnMslsjeGJqNU2btiDlvndaGt9vqBXb09MRwSMyoCp32BcI0Vjrk
JOnf9vYJ+YzKtknCaAOIq7pHyoDJRlCj4qllwr74iCYdt0wbFfBLCZbZxBMQwR+d
bDAmUU97
-----END CERTIFICATE-----
