Certificate:
    Data:
        Version: 3 (0x2)
        Serial Number: 268435682 (0x100000e2)
    Signature Algorithm: sha256WithRSAEncryption
        Issuer: C=DE, ST=Hessen, O=privacyidea, CN=CA001
        Validity
            Not Before: Apr 22 14:11:26 2017 GMT
            Not After : Apr 22 14:11:26 2018 GMT
        Subject: C=DE, ST=Hessen, O=privacyidea, CN=usercert
        Subject Public Key Info:
            Public Key Algorithm: rsaEncryption
                Public-Key: (2048 bit)
                Modulus:
                    00:dc:2f:d1:5f:29:97:d4:7c:c3:53:c8:30:bd:4b:
                    67:70:2c:24:6b:b8:5e:eb:21:7a:48:12:56:7c:81:
                    5c:48:75:b6:68:eb:f6:f2:98:4e:50:51:d1:7f:6c:
                    73:f3:0a:a7:ae:be:48:5e:e5:d6:e1:d9:2a:7c:32:
                    6e:4e:fd:08:f6:5a:54:49:23:73:c3:b9:07:18:d1:
                    ef:b3:ac:f8:8a:dc:94:96:a4:90:3a:8e:74:df:e6:
                    0d:37:1b:bd:5b:b7:25:1a:56:39:da:6f:91:aa:5e:
                    1c:74:f3:f9:7c:14:01:83:12:65:76:c7:bb:fe:36:
                    5b:95:e9:72:65:83:ed:3e:98:30:71:fa:87:dd:a3:
                    36:5a:30:03:2e:26:e0:61:d1:bf:02:3f:b6:06:1f:
                    4a:89:28:1c:5c:a2:ff:4e:be:94:e6:8c:e0:da:82:
                    f1:9d:29:32:48:30:73:b4:04:f6:42:1e:be:f7:e2:
                    32:32:27:3c:9d:89:2f:70:3e:85:9a:6f:5c:c5:09:
                    c0:8c:32:2f:72:22:c9:d2:95:1f:b6:ac:72:60:72:
                    b7:82:4d:6b:ce:5b:e3:00:d0:d2:2f:58:c6:e0:10:
                    e5:51:ca:4d:3b:2e:e6:7e:ab:84:d6:56:f1:93:35:
                    a0:93:64:26:81:75:2f:91:b5:16:06:38:0b:db:cc:
                    2d:07
                Exponent: 65537 (0x10001)
        X509v3 extensions:
            X509v3 Key Usage: 
                Digital Signature, Key Encipherment
            X509v3 Basic Constraints: 
                CA:FALSE
            Netscape Cert Type: 
                SSL Server
            Netscape Comment: 
                OpenSSL Generated Server Certificate
            X509v3 Subject Key Identifier: 
                FC:14:D1:F0:4B:8D:00:90:F2:F5:B8:71:9E:4E:97:C3:92:54:AD:0B
            X509v3 Authority Key Identifier: 
                keyid:F4:A7:C0:CC:91:46:AF:64:F3:91:F2:27:F8:C8:B2:6F:8A:87:32:73
                DirName:/C=DE/ST=Hessen/O=privacyidea/CN=CA001
                serial:FB:C8:EB:AC:83:CD:12:07

            X509v3 Extended Key Usage: 
                TLS Web Server Authentication
    Signature Algorithm: sha256WithRSAEncryption
         39:20:bf:51:b6:15:38:7e:c4:4e:5e:58:53:5c:dc:69:04:da:
         30:f9:83:75:a4:e1:ed:ac:6d:3a:67:fc:5c:e8:a5:07:77:3f:
         a8:01:48:bd:0c:70:a8:f2:52:a8:49:cb:5e:4c:f8:03:7c:bd:
         8a:35:8f:e9:8a:7e:1e:da:8c:63:1c:3f:a9:df:4f:e9:5a:ff:
         23:a9:1b:5d:5d:90:72:41:3c:75:c9:11:3c:4c:13:6b:dd:63:
         53:ee:c2:8c:19:33:fb:5e:da:67:d8:48:10:50:7f:92:0d:75:
         e7:63:ad:c3:ce:bf:db:6c:7c:a3:b6:ca:83:a4:28:ff:fb:37:
         67:be:32:0f:ce:71:a5:32:e2:9c:a8:66:f7:01:21:4e:d0:f2:
         9c:7d:58:36:91:d4:10:c3:17:e7:1d:10:e8:6b:be:79:96:8f:
         ca:ba:0e:c5:20:5c:33:64:95:93:90:cb:fe:9b:b7:5a:bc:6d:
         6e:b1:67:23:94:89:27:d6:15:e9:ca:55:ea:9f:63:99:3d:08:
         50:4a:43:b0:53:bc:38:b2:9f:d3:a8:ac:ba:71:12:c8:61:72:
         f3:14:74:05:1f:cd:f8:d5:76:d8:9d:f2:d6:93:9e:a2:90:32:
         2c:53:41:30:a9:f1:00:f2:d8:0d:e6:bb:88:41:ba:8c:a6:2e:
         68:c9:f3:f5
-----BEGIN CERTIFICATE-----
MIIEGTCCAwGgAwIBAgIEEAAA4jANBgkqhkiG9w0BAQsFADBEMQswCQYDVQQGEwJE
RTEPMA0GA1UECAwGSGVzc2VuMRQwEgYDVQQKDAtwcml2YWN5aWRlYTEOMAwGA1UE
AwwFQ0EwMDEwHhcNMTcwNDIyMTQxMTI2WhcNMTgwNDIyMTQxMTI2WjBHMQswCQYD
VQQGEwJERTEPMA0GA1UECAwGSGVzc2VuMRQwEgYDVQQKDAtwcml2YWN5aWRlYTER
MA8GA1UEAwwIdXNlcmNlcnQwggEiMA0GCSqGSIb3DQEBAQUAA4IBDwAwggEKAoIB
AQDcL9FfKZfUfMNTyDC9S2dwLCRruF7rIXpIElZ8gVxIdbZo6/bymE5QUdF/bHPz
Cqeuvkhe5dbh2Sp8Mm5O/Qj2WlRJI3PDuQcY0e+zrPiK3JSWpJA6jnTf5g03G71b
tyUaVjnab5GqXhx08/l8FAGDEmV2x7v+NluV6XJlg+0+mDBx+ofdozZaMAMuJuBh
0b8CP7YGH0qJKBxcov9OvpTmjODagvGdKTJIMHO0BPZCHr734jIyJzydiS9wPoWa
b1zFCcCMMi9yIsnSlR+2rHJgcreCTWvOW+MA0NIvWMbgEOVRyk07LuZ+q4TWVvGT
NaCTZCaBdS+RtRYGOAvbzC0HAgMBAAGjggEOMIIBCjALBgNVHQ8EBAMCBaAwCQYD
VR0TBAIwADARBglghkgBhvhCAQEEBAMCBkAwMwYJYIZIAYb4QgENBCYWJE9wZW5T
U0wgR2VuZXJhdGVkIFNlcnZlciBDZXJ0aWZpY2F0ZTAdBgNVHQ4EFgQU/BTR8EuN
AJDy9bhxnk6Xw5JUrQswdAYDVR0jBG0wa4AU9KfAzJFGr2TzkfIn+Miyb4qHMnOh
SKRGMEQxCzAJBgNVBAYTAkRFMQ8wDQYDVQQIDAZIZXNzZW4xFDASBgNVBAoMC3By
aXZhY3lpZGVhMQ4wDAYDVQQDDAVDQTAwMYIJAPvI66yDzRIHMBMGA1UdJQQMMAoG
CCsGAQUFBwMBMA0GCSqGSIb3DQEBCwUAA4IBAQA5IL9RthU4fsROXlhTXNxpBNow
+YN1pOHtrG06Z/xc6KUHdz+oAUi9DHCo8lKoScteTPgDfL2KNY/pin4e2oxjHD+p
30/pWv8jqRtdXZByQTx1yRE8TBNr3WNT7sKMGTP7Xtpn2EgQUH+SDXXnY63Dzr/b
bHyjtsqDpCj/+zdnvjIPznGlMuKcqGb3ASFO0PKcfVg2kdQQwxfnHRDoa755lo/K
ug7FIFwzZJWTkMv+m7davG1usWcjlIkn1hXpylXqn2OZPQhQSkOwU7w4sp/TqKy6
cRLIYXLzFHQFH8341XbYnfLWk56ikDIsU0EwqfEA8tgN5ruIQbqMpi5oyfP1
-----END CERTIFICATE-----
