Certificate:
    Data:
        Version: 3 (0x2)
        Serial Number: 268435692 (0x100000ec)
    Signature Algorithm: sha1WithRSAEncryption
        Issuer: C=DE, ST=Hessen, O=privacyidea, CN=CA001
        Validity
            Not Before: Feb 23 15:32:42 2017 GMT
            Not After : Feb 23 15:32:42 2018 GMT
        Subject: C=DE, ST=Hessen, O=privacyidea, CN=usercert
        Subject Public Key Info:
            Public Key Algorithm: rsaEncryption
                Public-Key: (2048 bit)
                Modulus:
                    00:dc:2f:d1:5f:29:97:d4:7c:c3:53:c8:30:bd:4b:
                    67:70:2c:24:6b:b8:5e:eb:21:7a:48:12:56:7c:81:
                    5c:48:75:b6:68:eb:f6:f2:98:4e:50:51:d1:7f:6c:
                    73:f3:0a:a7:ae:be:48:5e:e5:d6:e1:d9:2a:7c:32:
                    6e:4e:fd:08:f6:5a:54:49:23:73:c3:b9:07:18:d1:
                    ef:b3:ac:f8:8a:dc:94:96:a4:90:3a:8e:74:df:e6:
                    0d:37:1b:bd:5b:b7:25:1a:56:39:da:6f:91:aa:5e:
                    1c:74:f3:f9:7c:14:01:83:12:65:76:c7:bb:fe:36:
                    5b:95:e9:72:65:83:ed:3e:98:30:71:fa:87:dd:a3:
                    36:5a:30:03:2e:26:e0:61:d1:bf:02:3f:b6:06:1f:
                    4a:89:28:1c:5c:a2:ff:4e:be:94:e6:8c:e0:da:82:
                    f1:9d:29:32:48:30:73:b4:04:f6:42:1e:be:f7:e2:
                    32:32:27:3c:9d:89:2f:70:3e:85:9a:6f:5c:c5:09:
                    c0:8c:32:2f:72:22:c9:d2:95:1f:b6:ac:72:60:72:
                    b7:82:4d:6b:ce:5b:e3:00:d0:d2:2f:58:c6:e0:10:
                    e5:51:ca:4d:3b:2e:e6:7e:ab:84:d6:56:f1:93:35:
                    a0:93:64:26:81:75:2f:91:b5:16:06:38:0b:db:cc:
                    2d:07
                Exponent: 65537 (0x10001)
        X509v3 extensions:
            X509v3 Key Usage: 
                Digital Signature, Key Encipherment
            X509v3 Basic Constraints: 
                CA:FALSE
            Netscape Cert Type: 
                SSL Server
            Netscape Comment: 
                OpenSSL Generated Server Certificate
            X509v3 Subject Key Identifier: 
                FC:14:D1:F0:4B:8D:00:90:F2:F5:B8:71:9E:4E:97:C3:92:54:AD:0B
            X509v3 Authority Key Identifier: 
                keyid:F4:A7:C0:CC:91:46:AF:64:F3:91:F2:27:F8:C8:B2:6F:8A:87:32:73
                DirName:/C=DE/ST=Hessen/O=privacyidea/CN=CA001
                serial:FB:C8:EB:AC:83:CD:12:07

            X509v3 Extended Key Usage: 
                TLS Web Server Authentication
    Signature Algorithm: sha1WithRSAEncryption
         86:ee:20:15:47:5f:28:92:fe:61:5f:16:a0:94:f7:19:bf:0d:
         85:b1:5b:94:13:c2:37:f7:b6:b5:20:73:77:31:3a:c8:ea:15:
         36:1f:20:c6:e8:69:63:bd:0d:11:a1:00:23:ab:02:54:12:67:
         74:f1:43:32:b3:dd:c4:ad:59:10:65:f8:e3:5b:9e:14:a2:34:
         4d:4c:82:ea:8e:9c:5f:8d:cf:c5:db:e0:21:ee:c1:44:30:b2:
         23:d4:32:cf:3c:5f:d7:93:3e:1e:8d:44:a6:14:4e:8a:12:49:
         e0:c4:b3:b1:e6:7b:95:91:61:b0:36:4a:37:0e:ea:da:78:cf:
         f2:39:f5:07:8b:dc:56:10:77:ab:90:e0:79:1b:62:38:17:43:
         b5:69:e1:8a:10:98:7f:48:42:3a:50:33:7b:f9:b6:a6:7d:63:
         dc:17:bb:9f:10:e4:83:c2:07:8c:71:83:4a:5a:89:1a:60:2b:
         fb:ff:ec:e8:c3:36:a2:1a:70:f9:34:69:5c:cd:6e:1f:34:6f:
         c0:95:67:16:5f:a2:37:9c:1b:bb:bb:47:ad:01:67:80:bc:ca:
         ec:ee:b6:72:ea:98:87:31:4e:f9:12:8e:d6:de:04:bb:2e:59:
         3e:e9:71:0c:bc:85:f4:2c:91:30:48:ab:ad:b6:6e:6e:a7:46:
         69:ae:df:d3
-----BEGIN CERTIFICATE-----
MIIEGTCCAwGgAwIBAgIEEAAA7DANBgkqhkiG9w0BAQUFADBEMQswCQYDVQQGEwJE
RTEPMA0GA1UECAwGSGVzc2VuMRQwEgYDVQQKDAtwcml2YWN5aWRlYTEOMAwGA1UE
AwwFQ0EwMDEwHhcNMTcwMjIzMTUzMjQyWhcNMTgwMjIzMTUzMjQyWjBHMQswCQYD
VQQGEwJERTEPMA0GA1UECAwGSGVzc2VuMRQwEgYDVQQKDAtwcml2YWN5aWRlYTER
MA8GA1UEAwwIdXNlcmNlcnQwggEiMA0GCSqGSIb3DQEBAQUAA4IBDwAwggEKAoIB
AQDcL9FfKZfUfMNTyDC9S2dwLCRruF7rIXpIElZ8gVxIdbZo6/bymE5QUdF/bHPz
Cqeuvkhe5dbh2Sp8Mm5O/Qj2WlRJI3PDuQcY0e+zrPiK3JSWpJA6jnTf5g03G71b
tyUaVjnab5GqXhx08/l8FAGDEmV2x7v+NluV6XJlg+0+mDBx+ofdozZaMAMuJuBh
0b8CP7YGH0qJKBxcov9OvpTmjODagvGdKTJIMHO0BPZCHr734jIyJzydiS9wPoWa
b1zFCcCMMi9yIsnSlR+2rHJgcreCTWvOW+MA0NIvWMbgEOVRyk07LuZ+q4TWVvGT
NaCTZCaBdS+RtRYGOAvbzC0HAgMBAAGjggEOMIIBCjALBgNVHQ8EBAMCBaAwCQYD
VR0TBAIwADARBglghkgBhvhCAQEEBAMCBkAwMwYJYIZIAYb4QgENBCYWJE9wZW5T
U0wgR2VuZXJhdGVkIFNlcnZlciBDZXJ0aWZpY2F0ZTAdBgNVHQ4EFgQU/BTR8EuN
AJDy9bhxnk6Xw5JUrQswdAYDVR0jBG0wa4AU9KfAzJFGr2TzkfIn+Miyb4qHMnOh
SKRGMEQxCzAJBgNVBAYTAkRFMQ8wDQYDVQQIDAZIZXNzZW4xFDASBgNVBAoMC3By
aXZhY3lpZGVhMQ4wDAYDVQQDDAVDQTAwMYIJAPvI66yDzRIHMBMGA1UdJQQMMAoG
CCsGAQUFBwMBMA0GCSqGSIb3DQEBBQUAA4IBAQCG7iAVR18okv5hXxaglPcZvw2F
sVuUE8I397a1IHN3MTrI6hU2HyDG6GljvQ0RoQAjqwJUEmd08UMys93ErVkQZfjj
W54UojRNTILqjpxfjc/F2+Ah7sFEMLIj1DLPPF/Xkz4ejUSmFE6KEkngxLOx5nuV
kWGwNko3DuraeM/yOfUHi9xWEHerkOB5G2I4F0O1aeGKEJh/SEI6UDN7+bamfWPc
F7ufEOSDwgeMcYNKWokaYCv7/+zowzaiGnD5NGlczW4fNG/AlWcWX6I3nBu7u0et
AWeAvMrs7rZy6piHMU75Eo7W3gS7Llk+6XEMvIX0LJEwSKuttm5up0Zprt/T
-----END CERTIFICATE-----
