Certificate:
    Data:
        Version: 3 (0x2)
        Serial Number: 268435685 (0x100000e5)
    Signature Algorithm: sha256WithRSAEncryption
        Issuer: C=DE, ST=Hessen, O=privacyidea, CN=CA001
        Validity
            Not Before: Apr 22 14:16:17 2017 GMT
            Not After : Apr 22 14:16:17 2018 GMT
        Subject: C=DE, ST=Hessen, O=privacyidea, CN=requester.localdomain
        Subject Public Key Info:
            Public Key Algorithm: rsaEncryption
                Public-Key: (2048 bit)
                Modulus:
                    00:cd:be:14:4f:fa:ce:01:3f:42:22:1b:1d:9c:af:
                    dd:92:d2:7f:db:6c:b7:3e:39:43:43:6b:13:03:f1:
                    05:f4:07:74:bc:76:69:28:0b:af:19:8e:d7:fc:e3:
                    cd:c6:58:f2:ca:7f:08:6d:53:fc:07:02:44:24:c6:
                    b4:34:4c:8c:04:fe:33:0e:40:e2:20:ba:02:73:5a:
                    f7:f5:4f:63:6e:cc:c6:b6:df:54:1d:37:39:7d:51:
                    36:26:5f:bd:dc:3f:a8:8b:6b:a2:ae:b6:9d:d6:21:
                    e7:df:41:b8:7a:28:2a:68:48:ca:a8:2d:ed:e1:e9:
                    46:5e:5a:72:6d:b4:84:38:87:91:fd:94:11:0b:28:
                    84:c6:c2:2f:2a:fb:01:f9:36:7a:09:75:d1:33:88:
                    3c:73:41:5b:c8:bf:94:89:70:a1:f0:c0:b9:2e:50:
                    53:1e:b1:17:64:69:f4:2d:81:e0:a9:0d:0e:32:e9:
                    ba:55:8a:85:f1:1b:6f:49:79:b4:7f:88:c3:0d:3e:
                    54:88:9b:3d:1f:38:8c:04:f3:ee:6a:63:2b:f5:c6:
                    db:b4:83:aa:c4:78:41:3a:7d:4b:e1:c8:3e:71:ca:
                    1b:61:59:ea:c6:c4:ca:32:5e:c9:e9:bf:12:29:e6:
                    c6:c3:63:fe:a0:55:da:7a:f1:60:98:4d:26:ed:fa:
                    70:2d
                Exponent: 65537 (0x10001)
        X509v3 extensions:
            X509v3 Key Usage: 
                Digital Signature, Key Encipherment
            X509v3 Basic Constraints: 
                CA:FALSE
            Netscape Cert Type: 
                SSL Server
            Netscape Comment: 
                OpenSSL Generated Server Certificate
            X509v3 Subject Key Identifier: 
                53:3F:ED:5D:09:07:B3:65:7B:AB:45:C9:24:5B:09:77:80:0A:96:ED
            X509v3 Authority Key Identifier: 
                keyid:F4:A7:C0:CC:91:46:AF:64:F3:91:F2:27:F8:C8:B2:6F:8A:87:32:73
                DirName:/C=DE/ST=Hessen/O=privacyidea/CN=CA001
                serial:FB:C8:EB:AC:83:CD:12:07

            X509v3 Extended Key Usage: 
                TLS Web Server Authentication
    Signature Algorithm: sha256WithRSAEncryption
         5b:92:ab:35:5d:c8:51:cf:93:27:47:af:d8:31:eb:7e:00:2f:
         40:d5:61:a9:4e:9e:d5:2b:e3:42:f5:5a:92:51:61:4f:93:1c:
         55:9b:a4:0c:c4:c9:2c:e9:ea:48:06:4c:39:ba:42:df:65:fc:
         7a:f8:70:2b:22:57:b7:87:41:97:de:a4:78:de:50:05:07:b6:
         2e:ec:ed:88:a5:50:8b:1b:42:3b:30:dd:e4:fb:bc:ed:72:5f:
         94:cf:3a:b5:08:a9:37:a1:f9:6f:0d:72:a4:17:22:b7:7c:18:
         5f:98:42:26:13:e1:1e:20:4d:22:17:5c:48:2b:e6:7f:0c:26:
         2b:d5:53:3e:44:84:94:c0:84:90:b3:78:e6:6c:7b:72:d3:ad:
         75:4a:9f:bb:cb:73:99:8a:2d:8a:b5:f6:e5:ae:42:d2:56:bd:
         65:b6:82:5a:a5:77:7c:35:2d:6e:e7:1a:35:08:d0:da:bf:77:
         f7:1a:f1:8c:69:48:f6:d0:ae:d0:1f:19:8c:74:f5:03:cd:02:
         26:ad:da:bf:57:98:2c:93:de:49:bb:56:72:3a:fd:df:57:71:
         fc:b2:79:72:dd:6d:bb:9b:78:56:e4:4e:0c:78:1b:a2:f9:72:
         fe:8d:a7:3e:9d:fc:32:ed:b9:0a:b7:20:48:dd:72:f6:ba:f3:
         54:17:f8:05
-----BEGIN CERTIFICATE-----
MIIEJjCCAw6gAwIBAgIEEAAA5TANBgkqhkiG9w0BAQsFADBEMQswCQYDVQQGEwJE
RTEPMA0GA1UECAwGSGVzc2VuMRQwEgYDVQQKDAtwcml2YWN5aWRlYTEOMAwGA1UE
AwwFQ0EwMDEwHhcNMTcwNDIyMTQxNjE3WhcNMTgwNDIyMTQxNjE3WjBUMQswCQYD
VQQGEwJERTEPMA0GA1UECAwGSGVzc2VuMRQwEgYDVQQKDAtwcml2YWN5aWRlYTEe
MBwGA1UEAwwVcmVxdWVzdGVyLmxvY2FsZG9tYWluMIIBIjANBgkqhkiG9w0BAQEF
AAOCAQ8AMIIBCgKCAQEAzb4UT/rOAT9CIhsdnK/dktJ/22y3PjlDQ2sTA/EF9Ad0
vHZpKAuvGY7X/OPNxljyyn8IbVP8BwJEJMa0NEyMBP4zDkDiILoCc1r39U9jbszG
tt9UHTc5fVE2Jl+93D+oi2uirrad1iHn30G4eigqaEjKqC3t4elGXlpybbSEOIeR
/ZQRCyiExsIvKvsB+TZ6CXXRM4g8c0FbyL+UiXCh8MC5LlBTHrEXZGn0LYHgqQ0O
Mum6VYqF8RtvSXm0f4jDDT5UiJs9HziMBPPuamMr9cbbtIOqxHhBOn1L4cg+ccob
YVnqxsTKMl7J6b8SKebGw2P+oFXaevFgmE0m7fpwLQIDAQABo4IBDjCCAQowCwYD
VR0PBAQDAgWgMAkGA1UdEwQCMAAwEQYJYIZIAYb4QgEBBAQDAgZAMDMGCWCGSAGG
+EIBDQQmFiRPcGVuU1NMIEdlbmVyYXRlZCBTZXJ2ZXIgQ2VydGlmaWNhdGUwHQYD
VR0OBBYEFFM/7V0JB7Nle6tFySRbCXeACpbtMHQGA1UdIwRtMGuAFPSnwMyRRq9k
85HyJ/jIsm+KhzJzoUikRjBEMQswCQYDVQQGEwJERTEPMA0GA1UECAwGSGVzc2Vu
MRQwEgYDVQQKDAtwcml2YWN5aWRlYTEOMAwGA1UEAwwFQ0EwMDGCCQD7yOusg80S
BzATBgNVHSUEDDAKBggrBgEFBQcDATANBgkqhkiG9w0BAQsFAAOCAQEAW5KrNV3I
Uc+TJ0ev2DHrfgAvQNVhqU6e1SvjQvVaklFhT5McVZukDMTJLOnqSAZMObpC32X8
evhwKyJXt4dBl96keN5QBQe2LuztiKVQixtCOzDd5Pu87XJflM86tQipN6H5bw1y
pBcit3wYX5hCJhPhHiBNIhdcSCvmfwwmK9VTPkSElMCEkLN45mx7ctOtdUqfu8tz
mYotirX25a5C0la9ZbaCWqV3fDUtbucaNQjQ2r939xrxjGlI9tCu0B8ZjHT1A80C
Jq3av1eYLJPeSbtWcjr931dx/LJ5ct1tu5t4VuRODHgbovly/o2nPp38Mu25Crcg
SN1y9rrzVBf4BQ==
-----END CERTIFICATE-----
