Certificate:
    Data:
        Version: 3 (0x2)
        Serial Number: 268435684 (0x100000e4)
    Signature Algorithm: sha256WithRSAEncryption
        Issuer: C=DE, ST=Hessen, O=privacyidea, CN=CA001
        Validity
            Not Before: Apr 22 14:11:27 2017 GMT
            Not After : May 12 14:11:27 2019 GMT
        Subject: CN=Steve Test/emailAddress=steve@openssl.org
        Subject Public Key Info:
            Public Key Algorithm: rsaEncryption
                Public-Key: (2048 bit)
                Modulus:
                    00:d2:81:89:20:51:48:0f:73:f4:11:32:24:d5:1f:
                    1c:fd:5c:f5:b6:e6:c5:f0:52:81:dc:d2:af:66:4a:
                    7c:93:31:61:5c:af:d1:6d:06:70:03:60:7c:72:0c:
                    88:dd:49:cd:9e:02:6c:d2:5a:d7:53:0f:f3:da:be:
                    69:64:b5:0f:0c:00:e3:b3:50:47:a3:b3:9b:ba:13:
                    50:d6:58:5a:4b:ab:39:e0:11:ca:0a:27:67:03:78:
                    22:66:6d:92:1e:1b:5c:49:ae:e6:6b:d1:8e:3b:9d:
                    06:d3:c6:ac:4d:53:43:10:ab:e8:96:c1:87:82:97:
                    99:8f:20:d3:99:12:37:31:84:e1:8a:ff:29:03:5f:
                    22:90:3e:7f:9b:e0:20:c1:ad:dc:ae:4c:39:1a:31:
                    96:17:02:8c:b2:d9:b4:0d:20:12:9b:7d:86:54:fd:
                    33:fd:c1:2a:62:46:f8:60:96:cf:6e:01:6f:22:df:
                    13:47:e7:97:ec:05:72:23:a3:62:f8:fa:ef:ac:9c:
                    72:f0:37:cb:2f:37:cf:90:a8:27:51:86:c6:d7:78:
                    08:8f:7e:25:a2:15:70:a2:fb:1c:b6:15:5e:a0:97:
                    8b:81:4c:09:28:8a:27:3b:94:bc:71:db:5b:71:37:
                    9a:2b:16:e0:6f:b5:c9:f5:4b:4f:20:ba:65:cf:af:
                    ad:ad
                Exponent: 65537 (0x10001)
        X509v3 extensions:
            X509v3 Key Usage: 
                Digital Signature, Key Encipherment
            X509v3 Basic Constraints: 
                CA:FALSE
            Netscape Cert Type: 
                SSL Server
            Netscape Comment: 
                OpenSSL Generated Server Certificate
            X509v3 Subject Key Identifier: 
                E5:25:6D:3E:AF:0D:DD:3F:4C:F2:45:19:39:D5:14:DB:7E:9C:C0:AD
            X509v3 Authority Key Identifier: 
                keyid:F4:A7:C0:CC:91:46:AF:64:F3:91:F2:27:F8:C8:B2:6F:8A:87:32:73
                DirName:/C=DE/ST=Hessen/O=privacyidea/CN=CA001
                serial:FB:C8:EB:AC:83:CD:12:07

            X509v3 Extended Key Usage: 
                TLS Web Server Authentication
    Signature Algorithm: sha256WithRSAEncryption
         12:35:44:23:e5:60:7a:e9:58:af:b0:e4:15:77:d3:f4:41:a6:
         62:6f:5b:d2:00:52:d5:a1:67:2a:8f:d1:65:8b:46:6e:bf:8a:
         80:c9:2f:4b:c2:56:e2:1f:e3:c2:7e:65:5a:a6:d9:39:3c:ad:
         a6:e7:76:20:6a:61:7f:d5:35:47:d0:56:2c:44:59:40:ea:87:
         be:49:25:a0:b9:e6:66:64:72:3e:76:0b:be:5a:c2:50:71:65:
         65:95:f5:20:e1:ee:50:0a:b2:e5:52:f7:a4:9b:26:a4:74:cc:
         0d:12:66:bc:76:ef:de:f9:9b:74:ef:2c:c9:12:f2:3c:18:80:
         34:6f:11:de:a8:0b:b5:68:d3:26:2a:9e:93:7b:71:68:a1:da:
         ce:ad:86:65:a6:2d:71:26:54:0f:a8:59:db:e6:7f:99:9d:7f:
         dd:e7:9e:c2:4a:1d:65:d8:8e:78:39:6a:3b:98:31:a1:a4:01:
         69:3d:c1:f7:bb:5b:52:d9:5a:75:37:04:cb:11:80:01:02:fa:
         8b:95:ab:5b:40:a2:46:4b:34:f8:21:7c:e3:71:3c:11:d9:70:
         9c:d3:91:07:13:44:c3:6f:2d:fe:99:43:12:44:ba:79:c9:99:
         0c:72:50:95:da:87:ad:64:3b:3a:7e:31:0a:b8:e6:ee:86:6b:
         8d:87:e3:37
-----BEGIN CERTIFICATE-----
MIIECTCCAvGgAwIBAgIEEAAA5DANBgkqhkiG9w0BAQsFADBEMQswCQYDVQQGEwJE
RTEPMA0GA1UECAwGSGVzc2VuMRQwEgYDVQQKDAtwcml2YWN5aWRlYTEOMAwGA1UE
AwwFQ0EwMDEwHhcNMTcwNDIyMTQxMTI3WhcNMTkwNTEyMTQxMTI3WjA3MRMwEQYD
VQQDDApTdGV2ZSBUZXN0MSAwHgYJKoZIhvcNAQkBFhFzdGV2ZUBvcGVuc3NsLm9y
ZzCCASIwDQYJKoZIhvcNAQEBBQADggEPADCCAQoCggEBANKBiSBRSA9z9BEyJNUf
HP1c9bbmxfBSgdzSr2ZKfJMxYVyv0W0GcANgfHIMiN1JzZ4CbNJa11MP89q+aWS1
DwwA47NQR6Ozm7oTUNZYWkurOeARygonZwN4ImZtkh4bXEmu5mvRjjudBtPGrE1T
QxCr6JbBh4KXmY8g05kSNzGE4Yr/KQNfIpA+f5vgIMGt3K5MORoxlhcCjLLZtA0g
Ept9hlT9M/3BKmJG+GCWz24BbyLfE0fnl+wFciOjYvj676yccvA3yy83z5CoJ1GG
xtd4CI9+JaIVcKL7HLYVXqCXi4FMCSiKJzuUvHHbW3E3misW4G+1yfVLTyC6Zc+v
ra0CAwEAAaOCAQ4wggEKMAsGA1UdDwQEAwIFoDAJBgNVHRMEAjAAMBEGCWCGSAGG
+EIBAQQEAwIGQDAzBglghkgBhvhCAQ0EJhYkT3BlblNTTCBHZW5lcmF0ZWQgU2Vy
dmVyIENlcnRpZmljYXRlMB0GA1UdDgQWBBTlJW0+rw3dP0zyRRk51RTbfpzArTB0
BgNVHSMEbTBrgBT0p8DMkUavZPOR8if4yLJviocyc6FIpEYwRDELMAkGA1UEBhMC
REUxDzANBgNVBAgMBkhlc3NlbjEUMBIGA1UECgwLcHJpdmFjeWlkZWExDjAMBgNV
BAMMBUNBMDAxggkA+8jrrIPNEgcwEwYDVR0lBAwwCgYIKwYBBQUHAwEwDQYJKoZI
hvcNAQELBQADggEBABI1RCPlYHrpWK+w5BV30/RBpmJvW9IAUtWhZyqP0WWLRm6/
ioDJL0vCVuIf48J+ZVqm2Tk8rabndiBqYX/VNUfQVixEWUDqh75JJaC55mZkcj52
C75awlBxZWWV9SDh7lAKsuVS96SbJqR0zA0SZrx27975m3TvLMkS8jwYgDRvEd6o
C7Vo0yYqnpN7cWih2s6thmWmLXEmVA+oWdvmf5mdf93nnsJKHWXYjng5ajuYMaGk
AWk9wfe7W1LZWnU3BMsRgAEC+ouVq1tAokZLNPghfONxPBHZcJzTkQcTRMNvLf6Z
QxJEunnJmQxyUJXah61kOzp+MQq45u6Ga42H4zc=
-----END CERTIFICATE-----
