Certificate:
    Data:
        Version: 3 (0x2)
        Serial Number: 268435683 (0x100000e3)
    Signature Algorithm: sha256WithRSAEncryption
        Issuer: C=DE, ST=Hessen, O=privacyidea, CN=CA001
        Validity
            Not Before: Apr 22 14:11:26 2017 GMT
            Not After : Apr 22 14:11:26 2018 GMT
        Subject: CN=Steve Test/emailAddress=steve@openssl.org
        Subject Public Key Info:
            Public Key Algorithm: rsaEncryption
                Public-Key: (2048 bit)
                Modulus:
                    00:d2:81:89:20:51:48:0f:73:f4:11:32:24:d5:1f:
                    1c:fd:5c:f5:b6:e6:c5:f0:52:81:dc:d2:af:66:4a:
                    7c:93:31:61:5c:af:d1:6d:06:70:03:60:7c:72:0c:
                    88:dd:49:cd:9e:02:6c:d2:5a:d7:53:0f:f3:da:be:
                    69:64:b5:0f:0c:00:e3:b3:50:47:a3:b3:9b:ba:13:
                    50:d6:58:5a:4b:ab:39:e0:11:ca:0a:27:67:03:78:
                    22:66:6d:92:1e:1b:5c:49:ae:e6:6b:d1:8e:3b:9d:
                    06:d3:c6:ac:4d:53:43:10:ab:e8:96:c1:87:82:97:
                    99:8f:20:d3:99:12:37:31:84:e1:8a:ff:29:03:5f:
                    22:90:3e:7f:9b:e0:20:c1:ad:dc:ae:4c:39:1a:31:
                    96:17:02:8c:b2:d9:b4:0d:20:12:9b:7d:86:54:fd:
                    33:fd:c1:2a:62:46:f8:60:96:cf:6e:01:6f:22:df:
                    13:47:e7:97:ec:05:72:23:a3:62:f8:fa:ef:ac:9c:
                    72:f0:37:cb:2f:37:cf:90:a8:27:51:86:c6:d7:78:
                    08:8f:7e:25:a2:15:70:a2:fb:1c:b6:15:5e:a0:97:
                    8b:81:4c:09:28:8a:27:3b:94:bc:71:db:5b:71:37:
                    9a:2b:16:e0:6f:b5:c9:f5:4b:4f:20:ba:65:cf:af:
                    ad:ad
                Exponent: 65537 (0x10001)
        X509v3 extensions:
            X509v3 Key Usage: 
                Digital Signature, Key Encipherment
            X509v3 Basic Constraints: 
                CA:FALSE
            Netscape Cert Type: 
                SSL Server
            Netscape Comment: 
                OpenSSL Generated Server Certificate
            X509v3 Subject Key Identifier: 
                E5:25:6D:3E:AF:0D:DD:3F:4C:F2:45:19:39:D5:14:DB:7E:9C:C0:AD
            X509v3 Authority Key Identifier: 
                keyid:F4:A7:C0:CC:91:46:AF:64:F3:91:F2:27:F8:C8:B2:6F:8A:87:32:73
                DirName:/C=DE/ST=Hessen/O=privacyidea/CN=CA001
                serial:FB:C8:EB:AC:83:CD:12:07

            X509v3 Extended Key Usage: 
                TLS Web Server Authentication
    Signature Algorithm: sha256WithRSAEncryption
         70:67:ad:e9:e2:ed:98:53:f3:2c:3d:6a:ae:24:32:68:82:34:
         4d:6a:ea:92:db:e6:da:da:b8:67:b1:ab:2a:07:6b:83:7f:cf:
         95:34:26:a0:b1:94:f7:05:fe:43:ee:1a:ca:3d:4b:f4:88:e1:
         a5:0a:98:e0:0e:4f:14:9b:eb:30:48:10:fc:f7:42:de:de:8a:
         a3:a6:b5:65:aa:80:22:59:4e:e1:d7:60:ab:57:dc:35:23:4e:
         39:8a:97:a9:07:1d:60:f9:a6:ba:e7:c2:32:3c:b5:8c:42:25:
         f7:16:d3:be:1d:1b:98:72:a0:14:4c:3a:34:bb:db:3c:f0:0f:
         9b:61:e8:e4:f7:0c:e3:3f:24:70:93:e6:16:31:2b:c0:25:7a:
         d9:b5:ed:00:54:e5:e0:8c:fd:5b:ed:20:af:78:4c:74:5b:ff:
         d4:b1:84:e2:02:96:a2:ac:13:01:6a:f1:1b:69:99:f3:0c:8c:
         e6:a0:23:84:5c:f3:63:ee:af:45:b1:ba:77:ea:62:c7:1a:bb:
         91:1f:67:98:32:9d:5f:24:86:7c:e9:59:f9:1c:95:58:c3:f4:
         7b:c1:d4:2a:20:fa:a6:3f:0d:7e:1a:dd:c8:84:08:de:09:64:
         40:3d:10:02:ec:3a:b0:49:9d:84:67:57:42:c0:73:3e:84:2c:
         85:49:de:94
-----BEGIN CERTIFICATE-----
MIIECTCCAvGgAwIBAgIEEAAA4zANBgkqhkiG9w0BAQsFADBEMQswCQYDVQQGEwJE
RTEPMA0GA1UECAwGSGVzc2VuMRQwEgYDVQQKDAtwcml2YWN5aWRlYTEOMAwGA1UE
AwwFQ0EwMDEwHhcNMTcwNDIyMTQxMTI2WhcNMTgwNDIyMTQxMTI2WjA3MRMwEQYD
VQQDDApTdGV2ZSBUZXN0MSAwHgYJKoZIhvcNAQkBFhFzdGV2ZUBvcGVuc3NsLm9y
ZzCCASIwDQYJKoZIhvcNAQEBBQADggEPADCCAQoCggEBANKBiSBRSA9z9BEyJNUf
HP1c9bbmxfBSgdzSr2ZKfJMxYVyv0W0GcANgfHIMiN1JzZ4CbNJa11MP89q+aWS1
DwwA47NQR6Ozm7oTUNZYWkurOeARygonZwN4ImZtkh4bXEmu5mvRjjudBtPGrE1T
QxCr6JbBh4KXmY8g05kSNzGE4Yr/KQNfIpA+f5vgIMGt3K5MORoxlhcCjLLZtA0g
Ept9hlT9M/3BKmJG+GCWz24BbyLfE0fnl+wFciOjYvj676yccvA3yy83z5CoJ1GG
xtd4CI9+JaIVcKL7HLYVXqCXi4FMCSiKJzuUvHHbW3E3misW4G+1yfVLTyC6Zc+v
ra0CAwEAAaOCAQ4wggEKMAsGA1UdDwQEAwIFoDAJBgNVHRMEAjAAMBEGCWCGSAGG
+EIBAQQEAwIGQDAzBglghkgBhvhCAQ0EJhYkT3BlblNTTCBHZW5lcmF0ZWQgU2Vy
dmVyIENlcnRpZmljYXRlMB0GA1UdDgQWBBTlJW0+rw3dP0zyRRk51RTbfpzArTB0
BgNVHSMEbTBrgBT0p8DMkUavZPOR8if4yLJviocyc6FIpEYwRDELMAkGA1UEBhMC
REUxDzANBgNVBAgMBkhlc3NlbjEUMBIGA1UECgwLcHJpdmFjeWlkZWExDjAMBgNV
BAMMBUNBMDAxggkA+8jrrIPNEgcwEwYDVR0lBAwwCgYIKwYBBQUHAwEwDQYJKoZI
hvcNAQELBQADggEBAHBnreni7ZhT8yw9aq4kMmiCNE1q6pLb5trauGexqyoHa4N/
z5U0JqCxlPcF/kPuGso9S/SI4aUKmOAOTxSb6zBIEPz3Qt7eiqOmtWWqgCJZTuHX
YKtX3DUjTjmKl6kHHWD5prrnwjI8tYxCJfcW074dG5hyoBRMOjS72zzwD5th6OT3
DOM/JHCT5hYxK8Aletm17QBU5eCM/VvtIK94THRb/9SxhOIClqKsEwFq8RtpmfMM
jOagI4Rc82Pur0WxunfqYscau5EfZ5gynV8khnzpWfkclVjD9HvB1Cog+qY/DX4a
3ciECN4JZEA9EALsOrBJnYRnV0LAcz6ELIVJ3pQ=
-----END CERTIFICATE-----
