Certificate:
    Data:
        Version: 3 (0x2)
        Serial Number: 268435673 (0x100000d9)
    Signature Algorithm: sha256WithRSAEncryption
        Issuer: C=DE, ST=Hessen, O=privacyidea, CN=CA001
        Validity
            Not Before: Apr 22 11:51:26 2017 GMT
            Not After : Apr 22 11:51:26 2018 GMT
        Subject: C=DE, ST=Hessen, O=privacyidea, CN=requester.localdomain
        Subject Public Key Info:
            Public Key Algorithm: rsaEncryption
                Public-Key: (2048 bit)
                Modulus:
                    00:cd:be:14:4f:fa:ce:01:3f:42:22:1b:1d:9c:af:
                    dd:92:d2:7f:db:6c:b7:3e:39:43:43:6b:13:03:f1:
                    05:f4:07:74:bc:76:69:28:0b:af:19:8e:d7:fc:e3:
                    cd:c6:58:f2:ca:7f:08:6d:53:fc:07:02:44:24:c6:
                    b4:34:4c:8c:04:fe:33:0e:40:e2:20:ba:02:73:5a:
                    f7:f5:4f:63:6e:cc:c6:b6:df:54:1d:37:39:7d:51:
                    36:26:5f:bd:dc:3f:a8:8b:6b:a2:ae:b6:9d:d6:21:
                    e7:df:41:b8:7a:28:2a:68:48:ca:a8:2d:ed:e1:e9:
                    46:5e:5a:72:6d:b4:84:38:87:91:fd:94:11:0b:28:
                    84:c6:c2:2f:2a:fb:01:f9:36:7a:09:75:d1:33:88:
                    3c:73:41:5b:c8:bf:94:89:70:a1:f0:c0:b9:2e:50:
                    53:1e:b1:17:64:69:f4:2d:81:e0:a9:0d:0e:32:e9:
                    ba:55:8a:85:f1:1b:6f:49:79:b4:7f:88:c3:0d:3e:
                    54:88:9b:3d:1f:38:8c:04:f3:ee:6a:63:2b:f5:c6:
                    db:b4:83:aa:c4:78:41:3a:7d:4b:e1:c8:3e:71:ca:
                    1b:61:59:ea:c6:c4:ca:32:5e:c9:e9:bf:12:29:e6:
                    c6:c3:63:fe:a0:55:da:7a:f1:60:98:4d:26:ed:fa:
                    70:2d
                Exponent: 65537 (0x10001)
        X509v3 extensions:
            X509v3 Key Usage: 
                Digital Signature, Key Encipherment
            X509v3 Basic Constraints: 
                CA:FALSE
            Netscape Cert Type: 
                SSL Server
            Netscape Comment: 
                OpenSSL Generated Server Certificate
            X509v3 Subject Key Identifier: 
                53:3F:ED:5D:09:07:B3:65:7B:AB:45:C9:24:5B:09:77:80:0A:96:ED
            X509v3 Authority Key Identifier: 
                keyid:F4:A7:C0:CC:91:46:AF:64:F3:91:F2:27:F8:C8:B2:6F:8A:87:32:73
                DirName:/C=DE/ST=Hessen/O=privacyidea/CN=CA001
                serial:FB:C8:EB:AC:83:CD:12:07

            X509v3 Extended Key Usage: 
                TLS Web Server Authentication
    Signature Algorithm: sha256WithRSAEncryption
         bf:0b:e0:59:7c:1a:ba:5a:72:e7:6e:52:82:55:25:00:8c:7f:
         14:43:11:40:5d:2d:b4:13:58:36:9b:7a:35:11:61:45:e2:00:
         71:c1:7b:76:d2:2b:45:bf:57:d4:e0:3e:4f:a6:c2:7a:c5:bf:
         70:2e:93:0f:dc:a8:cb:94:ad:98:4c:bb:b8:72:f8:4f:52:31:
         96:40:32:c5:2e:f0:92:3e:21:cf:30:6d:55:26:96:50:f1:d7:
         6d:6e:cd:d9:09:de:b6:42:eb:40:70:6f:0a:c5:ad:a7:7e:e6:
         83:20:63:34:e1:33:80:68:86:df:fb:c3:e5:cd:75:fb:e4:34:
         1d:d7:4f:cb:44:37:7b:56:05:8a:01:e5:6e:9c:03:59:82:d9:
         3a:a3:1c:f9:59:eb:87:7c:ec:77:b0:2f:1e:35:c4:d2:04:a6:
         65:53:2c:9e:1f:53:2b:11:c2:d0:b2:f8:2f:1c:69:72:9c:ac:
         01:fe:e9:52:6b:d0:61:6d:da:ac:a3:4e:9d:cd:51:22:43:a6:
         24:58:aa:0e:1d:ff:45:35:41:ec:68:95:ca:80:a5:03:95:99:
         f3:a1:bd:24:07:90:f7:a8:39:b7:57:93:27:2b:f8:11:a9:01:
         be:4f:b9:d9:a6:8b:77:14:c2:ed:ab:04:46:54:29:93:c7:49:
         e0:d2:f5:0b
-----BEGIN CERTIFICATE-----
MIIEJjCCAw6gAwIBAgIEEAAA2TANBgkqhkiG9w0BAQsFADBEMQswCQYDVQQGEwJE
RTEPMA0GA1UECAwGSGVzc2VuMRQwEgYDVQQKDAtwcml2YWN5aWRlYTEOMAwGA1UE
AwwFQ0EwMDEwHhcNMTcwNDIyMTE1MTI2WhcNMTgwNDIyMTE1MTI2WjBUMQswCQYD
VQQGEwJERTEPMA0GA1UECAwGSGVzc2VuMRQwEgYDVQQKDAtwcml2YWN5aWRlYTEe
MBwGA1UEAwwVcmVxdWVzdGVyLmxvY2FsZG9tYWluMIIBIjANBgkqhkiG9w0BAQEF
AAOCAQ8AMIIBCgKCAQEAzb4UT/rOAT9CIhsdnK/dktJ/22y3PjlDQ2sTA/EF9Ad0
vHZpKAuvGY7X/OPNxljyyn8IbVP8BwJEJMa0NEyMBP4zDkDiILoCc1r39U9jbszG
tt9UHTc5fVE2Jl+93D+oi2uirrad1iHn30G4eigqaEjKqC3t4elGXlpybbSEOIeR
/ZQRCyiExsIvKvsB+TZ6CXXRM4g8c0FbyL+UiXCh8MC5LlBTHrEXZGn0LYHgqQ0O
Mum6VYqF8RtvSXm0f4jDDT5UiJs9HziMBPPuamMr9cbbtIOqxHhBOn1L4cg+ccob
YVnqxsTKMl7J6b8SKebGw2P+oFXaevFgmE0m7fpwLQIDAQABo4IBDjCCAQowCwYD
VR0PBAQDAgWgMAkGA1UdEwQCMAAwEQYJYIZIAYb4QgEBBAQDAgZAMDMGCWCGSAGG
+EIBDQQmFiRPcGVuU1NMIEdlbmVyYXRlZCBTZXJ2ZXIgQ2VydGlmaWNhdGUwHQYD
VR0OBBYEFFM/7V0JB7Nle6tFySRbCXeACpbtMHQGA1UdIwRtMGuAFPSnwMyRRq9k
85HyJ/jIsm+KhzJzoUikRjBEMQswCQYDVQQGEwJERTEPMA0GA1UECAwGSGVzc2Vu
MRQwEgYDVQQKDAtwcml2YWN5aWRlYTEOMAwGA1UEAwwFQ0EwMDGCCQD7yOusg80S
BzATBgNVHSUEDDAKBggrBgEFBQcDATANBgkqhkiG9w0BAQsFAAOCAQEAvwvgWXwa
ulpy525SglUlAIx/FEMRQF0ttBNYNpt6NRFhReIAccF7dtIrRb9X1OA+T6bCesW/
cC6TD9yoy5StmEy7uHL4T1IxlkAyxS7wkj4hzzBtVSaWUPHXbW7N2QnetkLrQHBv
CsWtp37mgyBjNOEzgGiG3/vD5c11++Q0HddPy0Q3e1YFigHlbpwDWYLZOqMc+Vnr
h3zsd7AvHjXE0gSmZVMsnh9TKxHC0LL4LxxpcpysAf7pUmvQYW3arKNOnc1RIkOm
JFiqDh3/RTVB7GiVyoClA5WZ86G9JAeQ96g5t1eTJyv4EakBvk+52aaLdxTC7asE
RlQpk8dJ4NL1Cw==
-----END CERTIFICATE-----
