Certificate:
    Data:
        Version: 3 (0x2)
        Serial Number: 268435681 (0x100000e1)
    Signature Algorithm: sha256WithRSAEncryption
        Issuer: C=DE, ST=Hessen, O=privacyidea, CN=CA001
        Validity
            Not Before: Apr 22 14:11:25 2017 GMT
            Not After : Apr 22 14:11:25 2018 GMT
        Subject: C=DE, ST=Hessen, O=privacyidea, CN=requester.localdomain
        Subject Public Key Info:
            Public Key Algorithm: rsaEncryption
                Public-Key: (2048 bit)
                Modulus:
                    00:cd:be:14:4f:fa:ce:01:3f:42:22:1b:1d:9c:af:
                    dd:92:d2:7f:db:6c:b7:3e:39:43:43:6b:13:03:f1:
                    05:f4:07:74:bc:76:69:28:0b:af:19:8e:d7:fc:e3:
                    cd:c6:58:f2:ca:7f:08:6d:53:fc:07:02:44:24:c6:
                    b4:34:4c:8c:04:fe:33:0e:40:e2:20:ba:02:73:5a:
                    f7:f5:4f:63:6e:cc:c6:b6:df:54:1d:37:39:7d:51:
                    36:26:5f:bd:dc:3f:a8:8b:6b:a2:ae:b6:9d:d6:21:
                    e7:df:41:b8:7a:28:2a:68:48:ca:a8:2d:ed:e1:e9:
                    46:5e:5a:72:6d:b4:84:38:87:91:fd:94:11:0b:28:
                    84:c6:c2:2f:2a:fb:01:f9:36:7a:09:75:d1:33:88:
                    3c:73:41:5b:c8:bf:94:89:70:a1:f0:c0:b9:2e:50:
                    53:1e:b1:17:64:69:f4:2d:81:e0:a9:0d:0e:32:e9:
                    ba:55:8a:85:f1:1b:6f:49:79:b4:7f:88:c3:0d:3e:
                    54:88:9b:3d:1f:38:8c:04:f3:ee:6a:63:2b:f5:c6:
                    db:b4:83:aa:c4:78:41:3a:7d:4b:e1:c8:3e:71:ca:
                    1b:61:59:ea:c6:c4:ca:32:5e:c9:e9:bf:12:29:e6:
                    c6:c3:63:fe:a0:55:da:7a:f1:60:98:4d:26:ed:fa:
                    70:2d
                Exponent: 65537 (0x10001)
        X509v3 extensions:
            X509v3 Key Usage: 
                Digital Signature, Key Encipherment
            X509v3 Basic Constraints: 
                CA:FALSE
            Netscape Cert Type: 
                SSL Server
            Netscape Comment: 
                OpenSSL Generated Server Certificate
            X509v3 Subject Key Identifier: 
                53:3F:ED:5D:09:07:B3:65:7B:AB:45:C9:24:5B:09:77:80:0A:96:ED
            X509v3 Authority Key Identifier: 
                keyid:F4:A7:C0:CC:91:46:AF:64:F3:91:F2:27:F8:C8:B2:6F:8A:87:32:73
                DirName:/C=DE/ST=Hessen/O=privacyidea/CN=CA001
                serial:FB:C8:EB:AC:83:CD:12:07

            X509v3 Extended Key Usage: 
                TLS Web Server Authentication
    Signature Algorithm: sha256WithRSAEncryption
         29:0f:07:58:04:a9:ab:92:b2:07:e9:1d:e2:52:ca:06:52:b3:
         61:1a:0a:d7:57:5f:93:bf:17:2c:e6:a4:80:2d:65:1c:e5:a9:
         bc:b0:f4:b9:29:33:2d:b2:2f:75:38:d3:86:20:c3:75:9a:84:
         87:98:d1:25:49:a5:50:1e:84:41:53:d2:25:45:b2:f1:3f:08:
         af:6e:ea:da:d3:27:41:15:9e:1e:09:16:91:da:63:2d:7a:db:
         55:0c:0c:32:67:53:46:ea:77:08:4f:c5:85:97:fd:5e:18:af:
         6b:00:07:d5:17:b2:02:63:79:95:af:bc:d4:00:0f:f8:8d:d6:
         a1:24:93:dc:4e:ce:23:99:1c:b2:4a:ba:7c:14:96:95:f5:b8:
         f0:af:c8:27:eb:93:e2:93:c3:4f:2e:d6:ba:a9:f5:75:fe:f1:
         4d:b4:25:a9:f4:ba:c2:78:a4:93:fc:b0:d7:86:2b:25:b0:5b:
         e4:d6:66:d3:bc:9f:68:15:91:75:2a:76:c3:db:1f:98:1e:90:
         21:de:71:8a:e4:92:ab:c7:44:5f:f2:a2:78:74:5a:a7:77:f1:
         2b:82:f6:5a:f2:fc:99:57:e8:d7:9e:3e:ba:fe:62:5b:6a:41:
         f2:62:e9:7d:c1:d9:21:66:99:1f:b1:bb:b9:cc:8f:e7:fa:d2:
         61:39:24:82
-----BEGIN CERTIFICATE-----
MIIEJjCCAw6gAwIBAgIEEAAA4TANBgkqhkiG9w0BAQsFADBEMQswCQYDVQQGEwJE
RTEPMA0GA1UECAwGSGVzc2VuMRQwEgYDVQQKDAtwcml2YWN5aWRlYTEOMAwGA1UE
AwwFQ0EwMDEwHhcNMTcwNDIyMTQxMTI1WhcNMTgwNDIyMTQxMTI1WjBUMQswCQYD
VQQGEwJERTEPMA0GA1UECAwGSGVzc2VuMRQwEgYDVQQKDAtwcml2YWN5aWRlYTEe
MBwGA1UEAwwVcmVxdWVzdGVyLmxvY2FsZG9tYWluMIIBIjANBgkqhkiG9w0BAQEF
AAOCAQ8AMIIBCgKCAQEAzb4UT/rOAT9CIhsdnK/dktJ/22y3PjlDQ2sTA/EF9Ad0
vHZpKAuvGY7X/OPNxljyyn8IbVP8BwJEJMa0NEyMBP4zDkDiILoCc1r39U9jbszG
tt9UHTc5fVE2Jl+93D+oi2uirrad1iHn30G4eigqaEjKqC3t4elGXlpybbSEOIeR
/ZQRCyiExsIvKvsB+TZ6CXXRM4g8c0FbyL+UiXCh8MC5LlBTHrEXZGn0LYHgqQ0O
Mum6VYqF8RtvSXm0f4jDDT5UiJs9HziMBPPuamMr9cbbtIOqxHhBOn1L4cg+ccob
YVnqxsTKMl7J6b8SKebGw2P+oFXaevFgmE0m7fpwLQIDAQABo4IBDjCCAQowCwYD
VR0PBAQDAgWgMAkGA1UdEwQCMAAwEQYJYIZIAYb4QgEBBAQDAgZAMDMGCWCGSAGG
+EIBDQQmFiRPcGVuU1NMIEdlbmVyYXRlZCBTZXJ2ZXIgQ2VydGlmaWNhdGUwHQYD
VR0OBBYEFFM/7V0JB7Nle6tFySRbCXeACpbtMHQGA1UdIwRtMGuAFPSnwMyRRq9k
85HyJ/jIsm+KhzJzoUikRjBEMQswCQYDVQQGEwJERTEPMA0GA1UECAwGSGVzc2Vu
MRQwEgYDVQQKDAtwcml2YWN5aWRlYTEOMAwGA1UEAwwFQ0EwMDGCCQD7yOusg80S
BzATBgNVHSUEDDAKBggrBgEFBQcDATANBgkqhkiG9w0BAQsFAAOCAQEAKQ8HWASp
q5KyB+kd4lLKBlKzYRoK11dfk78XLOakgC1lHOWpvLD0uSkzLbIvdTjThiDDdZqE
h5jRJUmlUB6EQVPSJUWy8T8Ir27q2tMnQRWeHgkWkdpjLXrbVQwMMmdTRup3CE/F
hZf9XhivawAH1ReyAmN5la+81AAP+I3WoSST3E7OI5kcskq6fBSWlfW48K/IJ+uT
4pPDTy7Wuqn1df7xTbQlqfS6wnikk/yw14YrJbBb5NZm07yfaBWRdSp2w9sfmB6Q
Id5xiuSSq8dEX/KieHRap3fxK4L2WvL8mVfo154+uv5iW2pB8mLpfcHZIWaZH7G7
ucyP5/rSYTkkgg==
-----END CERTIFICATE-----
