Certificate:
    Data:
        Version: 3 (0x2)
        Serial Number: 268435689 (0x100000e9)
    Signature Algorithm: sha1WithRSAEncryption
        Issuer: C=DE, ST=Hessen, O=privacyidea, CN=CA001
        Validity
            Not Before: Feb 23 15:26:45 2017 GMT
            Not After : Feb 23 15:26:45 2018 GMT
        Subject: C=DE, ST=Hessen, O=privacyidea, CN=usercert
        Subject Public Key Info:
            Public Key Algorithm: rsaEncryption
                Public-Key: (2048 bit)
                Modulus:
                    00:dc:2f:d1:5f:29:97:d4:7c:c3:53:c8:30:bd:4b:
                    67:70:2c:24:6b:b8:5e:eb:21:7a:48:12:56:7c:81:
                    5c:48:75:b6:68:eb:f6:f2:98:4e:50:51:d1:7f:6c:
                    73:f3:0a:a7:ae:be:48:5e:e5:d6:e1:d9:2a:7c:32:
                    6e:4e:fd:08:f6:5a:54:49:23:73:c3:b9:07:18:d1:
                    ef:b3:ac:f8:8a:dc:94:96:a4:90:3a:8e:74:df:e6:
                    0d:37:1b:bd:5b:b7:25:1a:56:39:da:6f:91:aa:5e:
                    1c:74:f3:f9:7c:14:01:83:12:65:76:c7:bb:fe:36:
                    5b:95:e9:72:65:83:ed:3e:98:30:71:fa:87:dd:a3:
                    36:5a:30:03:2e:26:e0:61:d1:bf:02:3f:b6:06:1f:
                    4a:89:28:1c:5c:a2:ff:4e:be:94:e6:8c:e0:da:82:
                    f1:9d:29:32:48:30:73:b4:04:f6:42:1e:be:f7:e2:
                    32:32:27:3c:9d:89:2f:70:3e:85:9a:6f:5c:c5:09:
                    c0:8c:32:2f:72:22:c9:d2:95:1f:b6:ac:72:60:72:
                    b7:82:4d:6b:ce:5b:e3:00:d0:d2:2f:58:c6:e0:10:
                    e5:51:ca:4d:3b:2e:e6:7e:ab:84:d6:56:f1:93:35:
                    a0:93:64:26:81:75:2f:91:b5:16:06:38:0b:db:cc:
                    2d:07
                Exponent: 65537 (0x10001)
        X509v3 extensions:
            X509v3 Key Usage: 
                Digital Signature, Key Encipherment
            X509v3 Basic Constraints: 
                CA:FALSE
            Netscape Cert Type: 
                SSL Server
            Netscape Comment: 
                OpenSSL Generated Server Certificate
            X509v3 Subject Key Identifier: 
                FC:14:D1:F0:4B:8D:00:90:F2:F5:B8:71:9E:4E:97:C3:92:54:AD:0B
            X509v3 Authority Key Identifier: 
                keyid:F4:A7:C0:CC:91:46:AF:64:F3:91:F2:27:F8:C8:B2:6F:8A:87:32:73
                DirName:/C=DE/ST=Hessen/O=privacyidea/CN=CA001
                serial:FB:C8:EB:AC:83:CD:12:07

            X509v3 Extended Key Usage: 
                TLS Web Server Authentication
    Signature Algorithm: sha1WithRSAEncryption
         8c:7d:98:0a:d9:23:d9:8c:e0:db:88:9f:f2:eb:b7:b4:0f:bc:
         6d:81:b2:b3:12:ae:cf:28:b5:b0:69:de:f3:ad:c3:52:ff:4b:
         7d:f8:26:a9:19:45:44:b0:70:66:84:b9:cd:45:7d:bf:2f:2d:
         e2:39:f1:eb:fc:da:f6:89:bd:55:cf:f6:90:d7:e9:af:db:e2:
         a8:68:33:b9:56:36:da:5b:05:a5:ef:22:eb:e2:04:86:1b:a9:
         47:47:b6:78:0c:10:82:80:84:9f:41:41:b7:e8:5f:8d:12:fb:
         a6:6d:ff:d6:eb:56:89:6b:be:24:3b:64:cd:64:cf:9d:93:ee:
         44:fb:95:c4:c9:6f:44:28:ea:ef:c1:d7:ec:a3:c9:05:d3:e9:
         1e:ea:0d:20:a2:62:1e:4c:4c:35:1f:01:fa:4a:e9:0e:c4:d8:
         28:5a:ba:78:ba:b7:4f:36:bd:95:1b:d8:78:f7:9e:a9:43:81:
         d8:6e:68:55:9b:29:ab:df:9e:eb:b0:7d:46:c4:37:f0:3c:d2:
         72:4a:0c:6e:69:79:59:5e:2f:38:f6:5d:c8:dc:9b:76:04:e6:
         2c:96:4d:47:28:9e:8d:a1:69:fa:e8:bf:c7:01:ce:58:f8:35:
         81:02:7c:e2:0b:3c:c2:79:9d:a6:e0:af:00:17:df:15:fa:fd:
         fb:c0:a9:cf
-----BEGIN CERTIFICATE-----
MIIEGTCCAwGgAwIBAgIEEAAA6TANBgkqhkiG9w0BAQUFADBEMQswCQYDVQQGEwJE
RTEPMA0GA1UECAwGSGVzc2VuMRQwEgYDVQQKDAtwcml2YWN5aWRlYTEOMAwGA1UE
AwwFQ0EwMDEwHhcNMTcwMjIzMTUyNjQ1WhcNMTgwMjIzMTUyNjQ1WjBHMQswCQYD
VQQGEwJERTEPMA0GA1UECAwGSGVzc2VuMRQwEgYDVQQKDAtwcml2YWN5aWRlYTER
MA8GA1UEAwwIdXNlcmNlcnQwggEiMA0GCSqGSIb3DQEBAQUAA4IBDwAwggEKAoIB
AQDcL9FfKZfUfMNTyDC9S2dwLCRruF7rIXpIElZ8gVxIdbZo6/bymE5QUdF/bHPz
Cqeuvkhe5dbh2Sp8Mm5O/Qj2WlRJI3PDuQcY0e+zrPiK3JSWpJA6jnTf5g03G71b
tyUaVjnab5GqXhx08/l8FAGDEmV2x7v+NluV6XJlg+0+mDBx+ofdozZaMAMuJuBh
0b8CP7YGH0qJKBxcov9OvpTmjODagvGdKTJIMHO0BPZCHr734jIyJzydiS9wPoWa
b1zFCcCMMi9yIsnSlR+2rHJgcreCTWvOW+MA0NIvWMbgEOVRyk07LuZ+q4TWVvGT
NaCTZCaBdS+RtRYGOAvbzC0HAgMBAAGjggEOMIIBCjALBgNVHQ8EBAMCBaAwCQYD
VR0TBAIwADARBglghkgBhvhCAQEEBAMCBkAwMwYJYIZIAYb4QgENBCYWJE9wZW5T
U0wgR2VuZXJhdGVkIFNlcnZlciBDZXJ0aWZpY2F0ZTAdBgNVHQ4EFgQU/BTR8EuN
AJDy9bhxnk6Xw5JUrQswdAYDVR0jBG0wa4AU9KfAzJFGr2TzkfIn+Miyb4qHMnOh
SKRGMEQxCzAJBgNVBAYTAkRFMQ8wDQYDVQQIDAZIZXNzZW4xFDASBgNVBAoMC3By
aXZhY3lpZGVhMQ4wDAYDVQQDDAVDQTAwMYIJAPvI66yDzRIHMBMGA1UdJQQMMAoG
CCsGAQUFBwMBMA0GCSqGSIb3DQEBBQUAA4IBAQCMfZgK2SPZjODbiJ/y67e0D7xt
gbKzEq7PKLWwad7zrcNS/0t9+CapGUVEsHBmhLnNRX2/Ly3iOfHr/Nr2ib1Vz/aQ
1+mv2+KoaDO5VjbaWwWl7yLr4gSGG6lHR7Z4DBCCgISfQUG36F+NEvumbf/W61aJ
a74kO2TNZM+dk+5E+5XEyW9EKOrvwdfso8kF0+ke6g0gomIeTEw1HwH6SukOxNgo
Wrp4urdPNr2VG9h4956pQ4HYbmhVmymr357rsH1GxDfwPNJySgxuaXlZXi849l3I
3Jt2BOYslk1HKJ6NoWn66L/HAc5Y+DWBAnziCzzCeZ2m4K8AF98V+v37wKnP
-----END CERTIFICATE-----
