Certificate:
    Data:
        Version: 3 (0x2)
        Serial Number: 268435687 (0x100000e7)
    Signature Algorithm: sha256WithRSAEncryption
        Issuer: C=DE, ST=Hessen, O=privacyidea, CN=CA001
        Validity
            Not Before: Apr 22 14:24:43 2017 GMT
            Not After : Apr 22 14:24:43 2018 GMT
        Subject: CN=selfservice,CN=user,O=realm1/emailAddress=meine
        Subject Public Key Info:
            Public Key Algorithm: rsaEncryption
                Public-Key: (2048 bit)
                Modulus:
                    00:cf:3c:d4:33:0e:12:c4:e6:da:cd:b6:56:a1:1c:
                    26:bb:26:1c:8a:4a:73:a8:58:8a:b6:1e:b3:8b:99:
                    d2:1d:07:c2:92:89:79:c0:69:d8:c8:df:28:61:98:
                    1e:b3:fe:ae:2b:bd:78:a9:f7:6e:47:dc:a3:a0:16:
                    8c:85:02:c1:4e:92:fd:72:6e:f0:c8:03:29:9b:b8:
                    00:6e:c0:83:95:c8:34:20:36:9c:b3:e5:e4:e6:76:
                    73:a3:1a:ad:40:96:e0:53:54:00:ec:76:79:9a:c6:
                    0d:7e:b6:bd:29:ec:83:f3:cb:89:a4:cb:6c:00:ba:
                    0c:c5:78:0f:ff:69:b8:94:f4:04:70:43:3f:d8:9e:
                    d7:a7:fb:5d:ce:75:8e:da:e7:c4:07:b1:9d:de:6f:
                    88:4b:b6:4d:9a:cf:f9:bc:fa:9f:cd:32:6d:f6:3a:
                    0b:0d:23:42:78:ec:97:42:bf:0e:4d:60:56:e1:d3:
                    02:f2:19:cb:84:57:90:e5:70:a1:a2:83:35:86:e2:
                    da:86:9f:f9:8a:c4:79:b3:52:28:da:cb:bb:34:ca:
                    d3:da:91:4a:cf:8d:76:a2:b2:6b:9b:f9:96:fd:09:
                    2a:da:11:23:4d:f0:cb:d6:b2:b1:0e:12:6c:9a:19:
                    65:98:87:ca:e4:ee:24:ce:44:ac:90:8f:9d:1b:c5:
                    2a:9d
                Exponent: 65537 (0x10001)
        X509v3 extensions:
            X509v3 Key Usage: 
                Digital Signature, Key Encipherment
            X509v3 Basic Constraints: 
                CA:FALSE
            Netscape Cert Type: 
                SSL Server
            Netscape Comment: 
                OpenSSL Generated Server Certificate
            X509v3 Subject Key Identifier: 
                4D:07:90:AD:FF:1D:0D:E7:1A:DD:D6:2E:FA:BA:34:CB:AA:1F:24:C6
            X509v3 Authority Key Identifier: 
                keyid:F4:A7:C0:CC:91:46:AF:64:F3:91:F2:27:F8:C8:B2:6F:8A:87:32:73
                DirName:/C=DE/ST=Hessen/O=privacyidea/CN=CA001
                serial:FB:C8:EB:AC:83:CD:12:07

            X509v3 Extended Key Usage: 
                TLS Web Server Authentication
    Signature Algorithm: sha256WithRSAEncryption
         a1:59:94:21:49:fa:3d:d2:b6:48:9e:8a:0f:c3:b9:3d:59:76:
         63:74:4d:6a:33:ab:10:d7:79:ce:02:a6:ea:20:d2:4a:01:39:
         0d:32:87:b0:db:75:8f:ed:a4:e0:d2:ff:7e:85:02:7f:53:70:
         35:ae:47:62:4f:55:7e:59:de:f2:50:65:3f:66:96:12:80:08:
         da:b2:c0:c9:54:7c:62:5e:da:16:6e:0f:1a:b1:ab:e3:3c:16:
         35:7e:df:04:3f:3b:7d:69:c0:c3:c7:2b:8a:91:21:21:eb:1a:
         25:2a:0a:2b:67:8f:51:31:66:f5:a4:69:ab:14:76:cd:c6:dc:
         37:1c:e4:9d:b5:39:ff:25:6c:89:48:d7:fc:58:6e:30:87:1d:
         e3:53:06:73:ef:23:59:54:15:79:51:9a:53:7d:41:c1:2a:a7:
         82:12:5d:4a:27:ef:09:98:ba:21:b6:b7:3e:b6:79:0d:59:e5:
         05:d1:a5:e6:0e:41:09:7c:ad:9b:f6:a0:e4:65:57:ce:57:b7:
         bb:79:93:c0:e4:57:60:22:cf:94:1e:6f:d0:1b:6e:e8:e7:d8:
         43:15:59:f6:32:06:cb:9f:dd:0f:bf:23:46:c8:42:07:dc:6c:
         ae:40:7a:71:dd:46:6d:01:3f:88:71:78:e1:f6:8d:22:48:c5:
         62:6f:4f:cf
-----BEGIN CERTIFICATE-----
MIIEDzCCAvegAwIBAgIEEAAA5zANBgkqhkiG9w0BAQsFADBEMQswCQYDVQQGEwJE
RTEPMA0GA1UECAwGSGVzc2VuMRQwEgYDVQQKDAtwcml2YWN5aWRlYTEOMAwGA1UE
AwwFQ0EwMDEwHhcNMTcwNDIyMTQyNDQzWhcNMTgwNDIyMTQyNDQzWjA9MSUwIwYD
VQQDDBxzZWxmc2VydmljZSxDTj11c2VyLE89cmVhbG0xMRQwEgYJKoZIhvcNAQkB
FgVtZWluZTCCASIwDQYJKoZIhvcNAQEBBQADggEPADCCAQoCggEBAM881DMOEsTm
2s22VqEcJrsmHIpKc6hYirYes4uZ0h0HwpKJecBp2MjfKGGYHrP+riu9eKn3bkfc
o6AWjIUCwU6S/XJu8MgDKZu4AG7Ag5XINCA2nLPl5OZ2c6MarUCW4FNUAOx2eZrG
DX62vSnsg/PLiaTLbAC6DMV4D/9puJT0BHBDP9ie16f7Xc51jtrnxAexnd5viEu2
TZrP+bz6n80ybfY6Cw0jQnjsl0K/Dk1gVuHTAvIZy4RXkOVwoaKDNYbi2oaf+YrE
ebNSKNrLuzTK09qRSs+NdqKya5v5lv0JKtoRI03wy9aysQ4SbJoZZZiHyuTuJM5E
rJCPnRvFKp0CAwEAAaOCAQ4wggEKMAsGA1UdDwQEAwIFoDAJBgNVHRMEAjAAMBEG
CWCGSAGG+EIBAQQEAwIGQDAzBglghkgBhvhCAQ0EJhYkT3BlblNTTCBHZW5lcmF0
ZWQgU2VydmVyIENlcnRpZmljYXRlMB0GA1UdDgQWBBRNB5Ct/x0N5xrd1i76ujTL
qh8kxjB0BgNVHSMEbTBrgBT0p8DMkUavZPOR8if4yLJviocyc6FIpEYwRDELMAkG
A1UEBhMCREUxDzANBgNVBAgMBkhlc3NlbjEUMBIGA1UECgwLcHJpdmFjeWlkZWEx
DjAMBgNVBAMMBUNBMDAxggkA+8jrrIPNEgcwEwYDVR0lBAwwCgYIKwYBBQUHAwEw
DQYJKoZIhvcNAQELBQADggEBAKFZlCFJ+j3Stkieig/DuT1ZdmN0TWozqxDXec4C
puog0koBOQ0yh7DbdY/tpODS/36FAn9TcDWuR2JPVX5Z3vJQZT9mlhKACNqywMlU
fGJe2hZuDxqxq+M8FjV+3wQ/O31pwMPHK4qRISHrGiUqCitnj1ExZvWkaasUds3G
3Dcc5J21Of8lbIlI1/xYbjCHHeNTBnPvI1lUFXlRmlN9QcEqp4ISXUon7wmYuiG2
tz62eQ1Z5QXRpeYOQQl8rZv2oORlV85Xt7t5k8DkV2Aiz5Qeb9Abbujn2EMVWfYy
Bsuf3Q+/I0bIQgfcbK5AenHdRm0BP4hxeOH2jSJIxWJvT88=
-----END CERTIFICATE-----
