Certificate:
    Data:
        Version: 3 (0x2)
        Serial Number: 268435664 (0x100000d0)
    Signature Algorithm: sha256WithRSAEncryption
        Issuer: C=DE, ST=Hessen, O=privacyidea, CN=CA001
        Validity
            Not Before: Apr 25 15:01:12 2017 GMT
            Not After : Apr 25 15:01:12 2018 GMT
        Subject: C=DE, ST=Hessen, O=privacyidea, CN=requester.localdomain
        Subject Public Key Info:
            Public Key Algorithm: rsaEncryption
                Public-Key: (2048 bit)
                Modulus:
                    00:cd:be:14:4f:fa:ce:01:3f:42:22:1b:1d:9c:af:
                    dd:92:d2:7f:db:6c:b7:3e:39:43:43:6b:13:03:f1:
                    05:f4:07:74:bc:76:69:28:0b:af:19:8e:d7:fc:e3:
                    cd:c6:58:f2:ca:7f:08:6d:53:fc:07:02:44:24:c6:
                    b4:34:4c:8c:04:fe:33:0e:40:e2:20:ba:02:73:5a:
                    f7:f5:4f:63:6e:cc:c6:b6:df:54:1d:37:39:7d:51:
                    36:26:5f:bd:dc:3f:a8:8b:6b:a2:ae:b6:9d:d6:21:
                    e7:df:41:b8:7a:28:2a:68:48:ca:a8:2d:ed:e1:e9:
                    46:5e:5a:72:6d:b4:84:38:87:91:fd:94:11:0b:28:
                    84:c6:c2:2f:2a:fb:01:f9:36:7a:09:75:d1:33:88:
                    3c:73:41:5b:c8:bf:94:89:70:a1:f0:c0:b9:2e:50:
                    53:1e:b1:17:64:69:f4:2d:81:e0:a9:0d:0e:32:e9:
                    ba:55:8a:85:f1:1b:6f:49:79:b4:7f:88:c3:0d:3e:
                    54:88:9b:3d:1f:38:8c:04:f3:ee:6a:63:2b:f5:c6:
                    db:b4:83:aa:c4:78:41:3a:7d:4b:e1:c8:3e:71:ca:
                    1b:61:59:ea:c6:c4:ca:32:5e:c9:e9:bf:12:29:e6:
                    c6:c3:63:fe:a0:55:da:7a:f1:60:98:4d:26:ed:fa:
                    70:2d
                Exponent: 65537 (0x10001)
        X509v3 extensions:
            X509v3 Key Usage: 
                Digital Signature, Key Encipherment
            X509v3 Basic Constraints: 
                CA:FALSE
            Netscape Cert Type: 
                SSL Server
            Netscape Comment: 
                OpenSSL Generated Server Certificate
            X509v3 Subject Key Identifier: 
                53:3F:ED:5D:09:07:B3:65:7B:AB:45:C9:24:5B:09:77:80:0A:96:ED
            X509v3 Authority Key Identifier: 
                keyid:F4:A7:C0:CC:91:46:AF:64:F3:91:F2:27:F8:C8:B2:6F:8A:87:32:73
                DirName:/C=DE/ST=Hessen/O=privacyidea/CN=CA001
                serial:FB:C8:EB:AC:83:CD:12:07

            X509v3 Extended Key Usage: 
                TLS Web Server Authentication
    Signature Algorithm: sha256WithRSAEncryption
         01:c8:ab:9b:4c:03:5e:dc:85:a1:a4:23:43:e1:d3:f7:01:39:
         e0:04:cc:84:35:24:2b:34:8e:49:83:a9:d8:a1:30:30:7a:40:
         c5:4a:13:e9:09:47:02:d0:b1:bd:fe:38:55:3d:a5:87:7a:86:
         7f:8d:0e:66:f0:eb:72:af:0f:a9:4a:b1:8a:21:80:4f:2c:09:
         c0:f8:0b:59:c0:b8:3e:97:df:a8:0f:33:40:08:eb:ad:fc:a8:
         8c:a9:f6:33:a3:6e:ab:be:d8:cc:3c:db:98:1c:71:fa:20:83:
         5a:ce:34:81:d5:e6:18:ae:d1:b5:8e:bb:20:d3:0b:da:91:ac:
         98:81:6b:e7:b7:a9:2c:28:7f:a8:4d:49:01:60:13:30:43:f3:
         df:99:f3:ba:de:d8:15:8e:7f:30:2f:b0:fc:7c:c0:f2:26:ae:
         a4:f8:8e:4d:84:04:36:01:e4:2a:c1:46:e1:9f:08:7b:fe:7a:
         c7:d3:f9:66:c0:5a:87:b1:0c:c6:8a:b2:b9:d5:c4:28:7e:62:
         b6:47:37:cd:4f:22:4b:f3:26:82:57:9f:eb:b3:7a:4d:7f:09:
         d1:4d:3f:81:e8:75:33:81:75:e6:09:43:43:13:4c:1a:cc:70:
         9e:20:18:dc:20:34:8f:71:75:f1:eb:a3:8f:b1:77:e1:15:6a:
         18:96:fc:e1
-----BEGIN CERTIFICATE-----
MIIEJjCCAw6gAwIBAgIEEAAA0DANBgkqhkiG9w0BAQsFADBEMQswCQYDVQQGEwJE
RTEPMA0GA1UECAwGSGVzc2VuMRQwEgYDVQQKDAtwcml2YWN5aWRlYTEOMAwGA1UE
AwwFQ0EwMDEwHhcNMTcwNDI1MTUwMTEyWhcNMTgwNDI1MTUwMTEyWjBUMQswCQYD
VQQGEwJERTEPMA0GA1UECAwGSGVzc2VuMRQwEgYDVQQKDAtwcml2YWN5aWRlYTEe
MBwGA1UEAwwVcmVxdWVzdGVyLmxvY2FsZG9tYWluMIIBIjANBgkqhkiG9w0BAQEF
AAOCAQ8AMIIBCgKCAQEAzb4UT/rOAT9CIhsdnK/dktJ/22y3PjlDQ2sTA/EF9Ad0
vHZpKAuvGY7X/OPNxljyyn8IbVP8BwJEJMa0NEyMBP4zDkDiILoCc1r39U9jbszG
tt9UHTc5fVE2Jl+93D+oi2uirrad1iHn30G4eigqaEjKqC3t4elGXlpybbSEOIeR
/ZQRCyiExsIvKvsB+TZ6CXXRM4g8c0FbyL+UiXCh8MC5LlBTHrEXZGn0LYHgqQ0O
Mum6VYqF8RtvSXm0f4jDDT5UiJs9HziMBPPuamMr9cbbtIOqxHhBOn1L4cg+ccob
YVnqxsTKMl7J6b8SKebGw2P+oFXaevFgmE0m7fpwLQIDAQABo4IBDjCCAQowCwYD
VR0PBAQDAgWgMAkGA1UdEwQCMAAwEQYJYIZIAYb4QgEBBAQDAgZAMDMGCWCGSAGG
+EIBDQQmFiRPcGVuU1NMIEdlbmVyYXRlZCBTZXJ2ZXIgQ2VydGlmaWNhdGUwHQYD
VR0OBBYEFFM/7V0JB7Nle6tFySRbCXeACpbtMHQGA1UdIwRtMGuAFPSnwMyRRq9k
85HyJ/jIsm+KhzJzoUikRjBEMQswCQYDVQQGEwJERTEPMA0GA1UECAwGSGVzc2Vu
MRQwEgYDVQQKDAtwcml2YWN5aWRlYTEOMAwGA1UEAwwFQ0EwMDGCCQD7yOusg80S
BzATBgNVHSUEDDAKBggrBgEFBQcDATANBgkqhkiG9w0BAQsFAAOCAQEAAcirm0wD
XtyFoaQjQ+HT9wE54ATMhDUkKzSOSYOp2KEwMHpAxUoT6QlHAtCxvf44VT2lh3qG
f40OZvDrcq8PqUqxiiGATywJwPgLWcC4PpffqA8zQAjrrfyojKn2M6Nuq77YzDzb
mBxx+iCDWs40gdXmGK7RtY67INML2pGsmIFr57epLCh/qE1JAWATMEPz35nzut7Y
FY5/MC+w/HzA8iaupPiOTYQENgHkKsFG4Z8Ie/56x9P5ZsBah7EMxoqyudXEKH5i
tkc3zU8iS/Mmglef67N6TX8J0U0/geh1M4F15glDQxNMGsxwniAY3CA0j3F18euj
j7F34RVqGJb84Q==
-----END CERTIFICATE-----
