Certificate:
    Data:
        Version: 3 (0x2)
        Serial Number: 268435690 (0x100000ea)
    Signature Algorithm: sha1WithRSAEncryption
        Issuer: C=DE, ST=Hessen, O=privacyidea, CN=CA001
        Validity
            Not Before: Feb 23 15:26:45 2017 GMT
            Not After : Feb 23 15:26:45 2018 GMT
        Subject: CN=Steve Test/emailAddress=steve@openssl.org
        Subject Public Key Info:
            Public Key Algorithm: rsaEncryption
                Public-Key: (2048 bit)
                Modulus:
                    00:d2:81:89:20:51:48:0f:73:f4:11:32:24:d5:1f:
                    1c:fd:5c:f5:b6:e6:c5:f0:52:81:dc:d2:af:66:4a:
                    7c:93:31:61:5c:af:d1:6d:06:70:03:60:7c:72:0c:
                    88:dd:49:cd:9e:02:6c:d2:5a:d7:53:0f:f3:da:be:
                    69:64:b5:0f:0c:00:e3:b3:50:47:a3:b3:9b:ba:13:
                    50:d6:58:5a:4b:ab:39:e0:11:ca:0a:27:67:03:78:
                    22:66:6d:92:1e:1b:5c:49:ae:e6:6b:d1:8e:3b:9d:
                    06:d3:c6:ac:4d:53:43:10:ab:e8:96:c1:87:82:97:
                    99:8f:20:d3:99:12:37:31:84:e1:8a:ff:29:03:5f:
                    22:90:3e:7f:9b:e0:20:c1:ad:dc:ae:4c:39:1a:31:
                    96:17:02:8c:b2:d9:b4:0d:20:12:9b:7d:86:54:fd:
                    33:fd:c1:2a:62:46:f8:60:96:cf:6e:01:6f:22:df:
                    13:47:e7:97:ec:05:72:23:a3:62:f8:fa:ef:ac:9c:
                    72:f0:37:cb:2f:37:cf:90:a8:27:51:86:c6:d7:78:
                    08:8f:7e:25:a2:15:70:a2:fb:1c:b6:15:5e:a0:97:
                    8b:81:4c:09:28:8a:27:3b:94:bc:71:db:5b:71:37:
                    9a:2b:16:e0:6f:b5:c9:f5:4b:4f:20:ba:65:cf:af:
                    ad:ad
                Exponent: 65537 (0x10001)
        X509v3 extensions:
            X509v3 Key Usage: 
                Digital Signature, Key Encipherment
            X509v3 Basic Constraints: 
                CA:FALSE
            Netscape Cert Type: 
                SSL Server
            Netscape Comment: 
                OpenSSL Generated Server Certificate
            X509v3 Subject Key Identifier: 
                E5:25:6D:3E:AF:0D:DD:3F:4C:F2:45:19:39:D5:14:DB:7E:9C:C0:AD
            X509v3 Authority Key Identifier: 
                keyid:F4:A7:C0:CC:91:46:AF:64:F3:91:F2:27:F8:C8:B2:6F:8A:87:32:73
                DirName:/C=DE/ST=Hessen/O=privacyidea/CN=CA001
                serial:FB:C8:EB:AC:83:CD:12:07

            X509v3 Extended Key Usage: 
                TLS Web Server Authentication
    Signature Algorithm: sha1WithRSAEncryption
         0b:f8:ca:7c:e9:0f:68:c1:c0:14:89:f8:3d:51:a5:90:09:42:
         bc:d2:f2:09:b2:1b:94:d1:83:10:a9:6e:3e:00:d1:21:a1:bd:
         29:3e:28:78:30:7f:57:f5:7e:21:de:e4:00:98:a2:57:c9:76:
         de:ed:58:4a:14:fa:d4:ae:7a:3e:90:71:fc:69:c8:60:59:2c:
         0f:dd:9f:9c:d5:78:5a:fb:d4:5a:38:17:43:c7:ef:6b:7b:ce:
         95:a0:75:c1:56:a3:89:4b:a4:be:a1:e7:2c:e3:1d:64:f3:36:
         b3:34:30:63:7f:ef:21:19:df:dc:9a:3e:c6:67:8a:5c:eb:9d:
         2a:21:6a:c8:ef:08:2b:98:de:24:da:da:bb:b7:06:8b:04:ea:
         25:51:9a:e1:cf:8c:5f:96:f7:8c:c1:ab:11:d9:51:f8:f4:e6:
         f9:59:0a:69:68:6b:82:29:13:f8:6a:a0:3f:65:97:21:17:5b:
         d3:90:3f:8c:b2:5a:a5:e9:d1:db:7b:b6:87:3f:b9:dc:8b:0b:
         57:ed:6b:e8:5b:c1:50:e9:5e:4e:f0:20:20:a6:e4:eb:3a:de:
         0e:18:c3:25:c5:bf:10:fc:10:92:ab:21:02:da:5b:34:84:65:
         ae:a8:b1:62:50:d9:bf:28:a0:73:12:88:27:2c:27:1e:3b:2c:
         e0:20:2a:bf
-----BEGIN CERTIFICATE-----
MIIECTCCAvGgAwIBAgIEEAAA6jANBgkqhkiG9w0BAQUFADBEMQswCQYDVQQGEwJE
RTEPMA0GA1UECAwGSGVzc2VuMRQwEgYDVQQKDAtwcml2YWN5aWRlYTEOMAwGA1UE
AwwFQ0EwMDEwHhcNMTcwMjIzMTUyNjQ1WhcNMTgwMjIzMTUyNjQ1WjA3MRMwEQYD
VQQDDApTdGV2ZSBUZXN0MSAwHgYJKoZIhvcNAQkBFhFzdGV2ZUBvcGVuc3NsLm9y
ZzCCASIwDQYJKoZIhvcNAQEBBQADggEPADCCAQoCggEBANKBiSBRSA9z9BEyJNUf
HP1c9bbmxfBSgdzSr2ZKfJMxYVyv0W0GcANgfHIMiN1JzZ4CbNJa11MP89q+aWS1
DwwA47NQR6Ozm7oTUNZYWkurOeARygonZwN4ImZtkh4bXEmu5mvRjjudBtPGrE1T
QxCr6JbBh4KXmY8g05kSNzGE4Yr/KQNfIpA+f5vgIMGt3K5MORoxlhcCjLLZtA0g
Ept9hlT9M/3BKmJG+GCWz24BbyLfE0fnl+wFciOjYvj676yccvA3yy83z5CoJ1GG
xtd4CI9+JaIVcKL7HLYVXqCXi4FMCSiKJzuUvHHbW3E3misW4G+1yfVLTyC6Zc+v
ra0CAwEAAaOCAQ4wggEKMAsGA1UdDwQEAwIFoDAJBgNVHRMEAjAAMBEGCWCGSAGG
+EIBAQQEAwIGQDAzBglghkgBhvhCAQ0EJhYkT3BlblNTTCBHZW5lcmF0ZWQgU2Vy
dmVyIENlcnRpZmljYXRlMB0GA1UdDgQWBBTlJW0+rw3dP0zyRRk51RTbfpzArTB0
BgNVHSMEbTBrgBT0p8DMkUavZPOR8if4yLJviocyc6FIpEYwRDELMAkGA1UEBhMC
REUxDzANBgNVBAgMBkhlc3NlbjEUMBIGA1UECgwLcHJpdmFjeWlkZWExDjAMBgNV
BAMMBUNBMDAxggkA+8jrrIPNEgcwEwYDVR0lBAwwCgYIKwYBBQUHAwEwDQYJKoZI
hvcNAQEFBQADggEBAAv4ynzpD2jBwBSJ+D1RpZAJQrzS8gmyG5TRgxCpbj4A0SGh
vSk+KHgwf1f1fiHe5ACYolfJdt7tWEoU+tSuej6QcfxpyGBZLA/dn5zVeFr71Fo4
F0PH72t7zpWgdcFWo4lLpL6h5yzjHWTzNrM0MGN/7yEZ39yaPsZnilzrnSohasjv
CCuY3iTa2ru3BosE6iVRmuHPjF+W94zBqxHZUfj05vlZCmloa4IpE/hqoD9llyEX
W9OQP4yyWqXp0dt7toc/udyLC1fta+hbwVDpXk7wICCm5Os63g4YwyXFvxD8EJKr
IQLaWzSEZa6osWJQ2b8ooHMSiCcsJx47LOAgKr8=
-----END CERTIFICATE-----
