Certificate:
    Data:
        Version: 3 (0x2)
        Serial Number: 268435668 (0x100000d4)
    Signature Algorithm: sha256WithRSAEncryption
        Issuer: C=DE, ST=Hessen, O=privacyidea, CN=CA001
        Validity
            Not Before: Apr 25 15:02:57 2017 GMT
            Not After : May 15 15:02:57 2019 GMT
        Subject: CN=Steve Test/emailAddress=steve@openssl.org
        Subject Public Key Info:
            Public Key Algorithm: rsaEncryption
                Public-Key: (2048 bit)
                Modulus:
                    00:d2:81:89:20:51:48:0f:73:f4:11:32:24:d5:1f:
                    1c:fd:5c:f5:b6:e6:c5:f0:52:81:dc:d2:af:66:4a:
                    7c:93:31:61:5c:af:d1:6d:06:70:03:60:7c:72:0c:
                    88:dd:49:cd:9e:02:6c:d2:5a:d7:53:0f:f3:da:be:
                    69:64:b5:0f:0c:00:e3:b3:50:47:a3:b3:9b:ba:13:
                    50:d6:58:5a:4b:ab:39:e0:11:ca:0a:27:67:03:78:
                    22:66:6d:92:1e:1b:5c:49:ae:e6:6b:d1:8e:3b:9d:
                    06:d3:c6:ac:4d:53:43:10:ab:e8:96:c1:87:82:97:
                    99:8f:20:d3:99:12:37:31:84:e1:8a:ff:29:03:5f:
                    22:90:3e:7f:9b:e0:20:c1:ad:dc:ae:4c:39:1a:31:
                    96:17:02:8c:b2:d9:b4:0d:20:12:9b:7d:86:54:fd:
                    33:fd:c1:2a:62:46:f8:60:96:cf:6e:01:6f:22:df:
                    13:47:e7:97:ec:05:72:23:a3:62:f8:fa:ef:ac:9c:
                    72:f0:37:cb:2f:37:cf:90:a8:27:51:86:c6:d7:78:
                    08:8f:7e:25:a2:15:70:a2:fb:1c:b6:15:5e:a0:97:
                    8b:81:4c:09:28:8a:27:3b:94:bc:71:db:5b:71:37:
                    9a:2b:16:e0:6f:b5:c9:f5:4b:4f:20:ba:65:cf:af:
                    ad:ad
                Exponent: 65537 (0x10001)
        X509v3 extensions:
            X509v3 Key Usage: 
                Digital Signature, Key Encipherment
            X509v3 Basic Constraints: 
                CA:FALSE
            Netscape Cert Type: 
                SSL Server
            Netscape Comment: 
                OpenSSL Generated Server Certificate
            X509v3 Subject Key Identifier: 
                E5:25:6D:3E:AF:0D:DD:3F:4C:F2:45:19:39:D5:14:DB:7E:9C:C0:AD
            X509v3 Authority Key Identifier: 
                keyid:F4:A7:C0:CC:91:46:AF:64:F3:91:F2:27:F8:C8:B2:6F:8A:87:32:73
                DirName:/C=DE/ST=Hessen/O=privacyidea/CN=CA001
                serial:FB:C8:EB:AC:83:CD:12:07

            X509v3 Extended Key Usage: 
                TLS Web Server Authentication
    Signature Algorithm: sha256WithRSAEncryption
         63:75:a4:33:3a:27:06:de:76:a2:d4:25:15:a9:b6:0e:be:ee:
         0b:52:5f:76:85:4f:37:37:9b:8a:fc:36:8d:8e:9a:f3:a7:cb:
         a9:68:83:3b:e5:4c:9c:5c:47:a6:6f:c9:3b:cd:b1:4d:04:c4:
         b2:e2:00:cf:4e:0e:7b:82:32:09:c0:95:68:9d:7b:d4:60:41:
         4a:ef:65:9d:2b:e0:f7:4c:a5:e7:99:26:24:e2:da:9a:69:0e:
         49:a8:70:2f:66:70:10:a7:eb:d7:2a:e7:04:de:73:19:f8:56:
         b9:14:36:0c:3c:4d:ab:c6:ec:d9:ac:d3:00:55:b6:b3:55:7c:
         79:7f:4f:c3:91:e1:f1:41:a4:f7:2e:c0:38:9f:0c:9f:31:76:
         6f:a1:48:05:b8:b5:0b:3e:76:8f:fe:27:5c:b9:5c:ed:0c:cc:
         45:bf:d7:a4:ba:ac:d9:aa:55:01:15:86:ad:dc:5f:2d:a5:06:
         4d:39:03:17:ce:8c:13:a8:c2:82:b4:20:c1:ea:8d:21:7a:39:
         0e:d0:9f:01:49:d7:97:60:ca:e4:4e:16:3d:be:8b:51:5d:fb:
         8a:47:e8:99:6f:0e:cd:66:27:90:be:74:2b:54:98:86:f4:65:
         ef:d0:83:9b:ed:f2:7a:8a:10:5e:bd:63:a1:44:df:8d:9e:ff:
         fc:4c:b9:74
-----BEGIN CERTIFICATE-----
MIIECTCCAvGgAwIBAgIEEAAA1DANBgkqhkiG9w0BAQsFADBEMQswCQYDVQQGEwJE
RTEPMA0GA1UECAwGSGVzc2VuMRQwEgYDVQQKDAtwcml2YWN5aWRlYTEOMAwGA1UE
AwwFQ0EwMDEwHhcNMTcwNDI1MTUwMjU3WhcNMTkwNTE1MTUwMjU3WjA3MRMwEQYD
VQQDDApTdGV2ZSBUZXN0MSAwHgYJKoZIhvcNAQkBFhFzdGV2ZUBvcGVuc3NsLm9y
ZzCCASIwDQYJKoZIhvcNAQEBBQADggEPADCCAQoCggEBANKBiSBRSA9z9BEyJNUf
HP1c9bbmxfBSgdzSr2ZKfJMxYVyv0W0GcANgfHIMiN1JzZ4CbNJa11MP89q+aWS1
DwwA47NQR6Ozm7oTUNZYWkurOeARygonZwN4ImZtkh4bXEmu5mvRjjudBtPGrE1T
QxCr6JbBh4KXmY8g05kSNzGE4Yr/KQNfIpA+f5vgIMGt3K5MORoxlhcCjLLZtA0g
Ept9hlT9M/3BKmJG+GCWz24BbyLfE0fnl+wFciOjYvj676yccvA3yy83z5CoJ1GG
xtd4CI9+JaIVcKL7HLYVXqCXi4FMCSiKJzuUvHHbW3E3misW4G+1yfVLTyC6Zc+v
ra0CAwEAAaOCAQ4wggEKMAsGA1UdDwQEAwIFoDAJBgNVHRMEAjAAMBEGCWCGSAGG
+EIBAQQEAwIGQDAzBglghkgBhvhCAQ0EJhYkT3BlblNTTCBHZW5lcmF0ZWQgU2Vy
dmVyIENlcnRpZmljYXRlMB0GA1UdDgQWBBTlJW0+rw3dP0zyRRk51RTbfpzArTB0
BgNVHSMEbTBrgBT0p8DMkUavZPOR8if4yLJviocyc6FIpEYwRDELMAkGA1UEBhMC
REUxDzANBgNVBAgMBkhlc3NlbjEUMBIGA1UECgwLcHJpdmFjeWlkZWExDjAMBgNV
BAMMBUNBMDAxggkA+8jrrIPNEgcwEwYDVR0lBAwwCgYIKwYBBQUHAwEwDQYJKoZI
hvcNAQELBQADggEBAGN1pDM6JwbedqLUJRWptg6+7gtSX3aFTzc3m4r8No2OmvOn
y6logzvlTJxcR6ZvyTvNsU0ExLLiAM9ODnuCMgnAlWide9RgQUrvZZ0r4PdMpeeZ
JiTi2pppDkmocC9mcBCn69cq5wTecxn4VrkUNgw8TavG7Nms0wBVtrNVfHl/T8OR
4fFBpPcuwDifDJ8xdm+hSAW4tQs+do/+J1y5XO0MzEW/16S6rNmqVQEVhq3cXy2l
Bk05AxfOjBOowoK0IMHqjSF6OQ7QnwFJ15dgyuROFj2+i1Fd+4pH6JlvDs1mJ5C+
dCtUmIb0Ze/Qg5vt8nqKEF69Y6FE342e//xMuXQ=
-----END CERTIFICATE-----
