Certificate:
    Data:
        Version: 3 (0x2)
        Serial Number: 268435679 (0x100000df)
    Signature Algorithm: sha256WithRSAEncryption
        Issuer: C=DE, ST=Hessen, O=privacyidea, CN=CA001
        Validity
            Not Before: Apr 22 12:02:01 2017 GMT
            Not After : Apr 22 12:02:01 2018 GMT
        Subject: CN=selfservice,CN=user,O=realm1/emailAddress=meine
        Subject Public Key Info:
            Public Key Algorithm: rsaEncryption
                Public-Key: (2048 bit)
                Modulus:
                    00:cf:3c:d4:33:0e:12:c4:e6:da:cd:b6:56:a1:1c:
                    26:bb:26:1c:8a:4a:73:a8:58:8a:b6:1e:b3:8b:99:
                    d2:1d:07:c2:92:89:79:c0:69:d8:c8:df:28:61:98:
                    1e:b3:fe:ae:2b:bd:78:a9:f7:6e:47:dc:a3:a0:16:
                    8c:85:02:c1:4e:92:fd:72:6e:f0:c8:03:29:9b:b8:
                    00:6e:c0:83:95:c8:34:20:36:9c:b3:e5:e4:e6:76:
                    73:a3:1a:ad:40:96:e0:53:54:00:ec:76:79:9a:c6:
                    0d:7e:b6:bd:29:ec:83:f3:cb:89:a4:cb:6c:00:ba:
                    0c:c5:78:0f:ff:69:b8:94:f4:04:70:43:3f:d8:9e:
                    d7:a7:fb:5d:ce:75:8e:da:e7:c4:07:b1:9d:de:6f:
                    88:4b:b6:4d:9a:cf:f9:bc:fa:9f:cd:32:6d:f6:3a:
                    0b:0d:23:42:78:ec:97:42:bf:0e:4d:60:56:e1:d3:
                    02:f2:19:cb:84:57:90:e5:70:a1:a2:83:35:86:e2:
                    da:86:9f:f9:8a:c4:79:b3:52:28:da:cb:bb:34:ca:
                    d3:da:91:4a:cf:8d:76:a2:b2:6b:9b:f9:96:fd:09:
                    2a:da:11:23:4d:f0:cb:d6:b2:b1:0e:12:6c:9a:19:
                    65:98:87:ca:e4:ee:24:ce:44:ac:90:8f:9d:1b:c5:
                    2a:9d
                Exponent: 65537 (0x10001)
        X509v3 extensions:
            X509v3 Key Usage: 
                Digital Signature, Key Encipherment
            X509v3 Basic Constraints: 
                CA:FALSE
            Netscape Cert Type: 
                SSL Server
            Netscape Comment: 
                OpenSSL Generated Server Certificate
            X509v3 Subject Key Identifier: 
                4D:07:90:AD:FF:1D:0D:E7:1A:DD:D6:2E:FA:BA:34:CB:AA:1F:24:C6
            X509v3 Authority Key Identifier: 
                keyid:F4:A7:C0:CC:91:46:AF:64:F3:91:F2:27:F8:C8:B2:6F:8A:87:32:73
                DirName:/C=DE/ST=Hessen/O=privacyidea/CN=CA001
                serial:FB:C8:EB:AC:83:CD:12:07

            X509v3 Extended Key Usage: 
                TLS Web Server Authentication
    Signature Algorithm: sha256WithRSAEncryption
         76:83:e9:c7:78:d8:dd:be:05:87:35:09:f0:e5:3e:f9:34:b1:
         4d:06:37:c8:21:f0:b2:8a:84:34:06:20:76:cc:e4:e1:c4:e1:
         24:c0:4d:de:c5:cc:19:d6:7a:3e:31:77:23:82:a7:69:60:10:
         19:3f:ef:02:65:90:81:a8:67:47:42:ed:67:ad:cb:5f:24:4f:
         46:cb:b3:2b:b6:94:b9:96:8e:f7:67:7e:5b:84:fd:8f:5b:75:
         26:d4:64:62:bc:e1:d4:bd:57:b7:50:a8:c4:ae:63:37:93:05:
         4d:bc:d2:c0:93:7f:ad:6b:eb:a1:ac:fe:56:35:5d:fe:83:f2:
         d3:5b:d3:8e:7d:62:e9:02:b7:6f:74:f5:12:6d:10:f8:e4:71:
         d0:7d:70:e7:59:68:f8:91:1f:b2:18:42:3c:d9:d1:58:ce:47:
         7e:32:aa:4e:0a:e4:46:62:a4:b3:ee:b1:e6:7f:ac:3f:7b:10:
         96:78:52:f8:3c:f7:1e:fe:d4:de:31:dd:65:99:1b:50:a2:c2:
         0c:c1:2e:8d:e0:89:86:38:9b:47:1b:65:ea:30:80:2e:77:c9:
         d2:ef:7b:20:d2:68:46:3b:a1:cc:37:4d:c0:d9:ad:1b:7b:8c:
         ed:f8:bd:06:81:58:07:5f:35:b4:9f:30:87:8c:8d:a2:7a:94:
         8f:63:0f:77
-----BEGIN CERTIFICATE-----
MIIEDzCCAvegAwIBAgIEEAAA3zANBgkqhkiG9w0BAQsFADBEMQswCQYDVQQGEwJE
RTEPMA0GA1UECAwGSGVzc2VuMRQwEgYDVQQKDAtwcml2YWN5aWRlYTEOMAwGA1UE
AwwFQ0EwMDEwHhcNMTcwNDIyMTIwMjAxWhcNMTgwNDIyMTIwMjAxWjA9MSUwIwYD
VQQDDBxzZWxmc2VydmljZSxDTj11c2VyLE89cmVhbG0xMRQwEgYJKoZIhvcNAQkB
FgVtZWluZTCCASIwDQYJKoZIhvcNAQEBBQADggEPADCCAQoCggEBAM881DMOEsTm
2s22VqEcJrsmHIpKc6hYirYes4uZ0h0HwpKJecBp2MjfKGGYHrP+riu9eKn3bkfc
o6AWjIUCwU6S/XJu8MgDKZu4AG7Ag5XINCA2nLPl5OZ2c6MarUCW4FNUAOx2eZrG
DX62vSnsg/PLiaTLbAC6DMV4D/9puJT0BHBDP9ie16f7Xc51jtrnxAexnd5viEu2
TZrP+bz6n80ybfY6Cw0jQnjsl0K/Dk1gVuHTAvIZy4RXkOVwoaKDNYbi2oaf+YrE
ebNSKNrLuzTK09qRSs+NdqKya5v5lv0JKtoRI03wy9aysQ4SbJoZZZiHyuTuJM5E
rJCPnRvFKp0CAwEAAaOCAQ4wggEKMAsGA1UdDwQEAwIFoDAJBgNVHRMEAjAAMBEG
CWCGSAGG+EIBAQQEAwIGQDAzBglghkgBhvhCAQ0EJhYkT3BlblNTTCBHZW5lcmF0
ZWQgU2VydmVyIENlcnRpZmljYXRlMB0GA1UdDgQWBBRNB5Ct/x0N5xrd1i76ujTL
qh8kxjB0BgNVHSMEbTBrgBT0p8DMkUavZPOR8if4yLJviocyc6FIpEYwRDELMAkG
A1UEBhMCREUxDzANBgNVBAgMBkhlc3NlbjEUMBIGA1UECgwLcHJpdmFjeWlkZWEx
DjAMBgNVBAMMBUNBMDAxggkA+8jrrIPNEgcwEwYDVR0lBAwwCgYIKwYBBQUHAwEw
DQYJKoZIhvcNAQELBQADggEBAHaD6cd42N2+BYc1CfDlPvk0sU0GN8gh8LKKhDQG
IHbM5OHE4STATd7FzBnWej4xdyOCp2lgEBk/7wJlkIGoZ0dC7Wety18kT0bLsyu2
lLmWjvdnfluE/Y9bdSbUZGK84dS9V7dQqMSuYzeTBU280sCTf61r66Gs/lY1Xf6D
8tNb0459YukCt2909RJtEPjkcdB9cOdZaPiRH7IYQjzZ0VjOR34yqk4K5EZipLPu
seZ/rD97EJZ4Uvg89x7+1N4x3WWZG1CiwgzBLo3giYY4m0cbZeowgC53ydLveyDS
aEY7ocw3TcDZrRt7jO34vQaBWAdfNbSfMIeMjaJ6lI9jD3c=
-----END CERTIFICATE-----
