Certificate:
    Data:
        Version: 3 (0x2)
        Serial Number: 268435671 (0x100000d7)
    Signature Algorithm: sha256WithRSAEncryption
        Issuer: C=DE, ST=Hessen, O=privacyidea, CN=CA001
        Validity
            Not Before: Apr 25 15:15:14 2017 GMT
            Not After : Apr 25 15:15:14 2018 GMT
        Subject: CN=selfservice,CN=user,O=realm1/emailAddress=meine
        Subject Public Key Info:
            Public Key Algorithm: rsaEncryption
                Public-Key: (2048 bit)
                Modulus:
                    00:cf:3c:d4:33:0e:12:c4:e6:da:cd:b6:56:a1:1c:
                    26:bb:26:1c:8a:4a:73:a8:58:8a:b6:1e:b3:8b:99:
                    d2:1d:07:c2:92:89:79:c0:69:d8:c8:df:28:61:98:
                    1e:b3:fe:ae:2b:bd:78:a9:f7:6e:47:dc:a3:a0:16:
                    8c:85:02:c1:4e:92:fd:72:6e:f0:c8:03:29:9b:b8:
                    00:6e:c0:83:95:c8:34:20:36:9c:b3:e5:e4:e6:76:
                    73:a3:1a:ad:40:96:e0:53:54:00:ec:76:79:9a:c6:
                    0d:7e:b6:bd:29:ec:83:f3:cb:89:a4:cb:6c:00:ba:
                    0c:c5:78:0f:ff:69:b8:94:f4:04:70:43:3f:d8:9e:
                    d7:a7:fb:5d:ce:75:8e:da:e7:c4:07:b1:9d:de:6f:
                    88:4b:b6:4d:9a:cf:f9:bc:fa:9f:cd:32:6d:f6:3a:
                    0b:0d:23:42:78:ec:97:42:bf:0e:4d:60:56:e1:d3:
                    02:f2:19:cb:84:57:90:e5:70:a1:a2:83:35:86:e2:
                    da:86:9f:f9:8a:c4:79:b3:52:28:da:cb:bb:34:ca:
                    d3:da:91:4a:cf:8d:76:a2:b2:6b:9b:f9:96:fd:09:
                    2a:da:11:23:4d:f0:cb:d6:b2:b1:0e:12:6c:9a:19:
                    65:98:87:ca:e4:ee:24:ce:44:ac:90:8f:9d:1b:c5:
                    2a:9d
                Exponent: 65537 (0x10001)
        X509v3 extensions:
            X509v3 Key Usage: 
                Digital Signature, Key Encipherment
            X509v3 Basic Constraints: 
                CA:FALSE
            Netscape Cert Type: 
                SSL Server
            Netscape Comment: 
                OpenSSL Generated Server Certificate
            X509v3 Subject Key Identifier: 
                4D:07:90:AD:FF:1D:0D:E7:1A:DD:D6:2E:FA:BA:34:CB:AA:1F:24:C6
            X509v3 Authority Key Identifier: 
                keyid:F4:A7:C0:CC:91:46:AF:64:F3:91:F2:27:F8:C8:B2:6F:8A:87:32:73
                DirName:/C=DE/ST=Hessen/O=privacyidea/CN=CA001
                serial:FB:C8:EB:AC:83:CD:12:07

            X509v3 Extended Key Usage: 
                TLS Web Server Authentication
    Signature Algorithm: sha256WithRSAEncryption
         60:3e:6c:36:a6:94:d9:0b:a6:c5:70:7a:63:de:42:fa:c7:6f:
         4a:26:6f:3f:26:16:28:f5:70:96:15:5b:31:87:0a:8d:25:21:
         64:be:f8:ac:ca:ff:b8:46:28:a0:ba:a1:2d:90:bd:63:af:27:
         7d:cf:b1:c4:e3:df:fc:26:b4:e1:a0:8c:60:a7:b4:2f:af:05:
         f0:81:34:59:19:6a:6c:3f:6f:92:f1:8c:95:26:ce:d7:95:c9:
         1a:86:f7:25:d7:0e:d3:0a:d9:71:d5:8d:5c:c4:46:54:03:ca:
         46:4f:e3:03:66:19:96:5e:df:22:75:0a:90:b3:70:0d:43:c4:
         30:22:9f:d0:d9:b0:fa:df:74:d2:a5:a5:23:94:9e:fd:20:e2:
         cc:e9:2c:94:07:e3:ad:86:25:96:71:7b:87:78:b0:e9:a1:f8:
         17:1e:7e:63:72:e2:6c:8f:5e:76:84:93:ad:9a:b4:e6:a2:74:
         3a:c5:bb:ba:8c:38:77:26:87:8b:25:0e:fd:29:67:bf:36:78:
         c4:ca:a9:07:54:85:24:c0:c6:89:f7:0f:3f:c5:ae:7a:09:a4:
         7e:0c:27:38:22:01:50:bd:0f:5b:a0:45:f4:ef:b1:7b:b4:f9:
         bb:5d:78:ad:f0:76:e9:39:36:6f:b6:fb:6f:78:b5:b3:a0:fa:
         bd:23:51:f7
-----BEGIN CERTIFICATE-----
MIIEDzCCAvegAwIBAgIEEAAA1zANBgkqhkiG9w0BAQsFADBEMQswCQYDVQQGEwJE
RTEPMA0GA1UECAwGSGVzc2VuMRQwEgYDVQQKDAtwcml2YWN5aWRlYTEOMAwGA1UE
AwwFQ0EwMDEwHhcNMTcwNDI1MTUxNTE0WhcNMTgwNDI1MTUxNTE0WjA9MSUwIwYD
VQQDDBxzZWxmc2VydmljZSxDTj11c2VyLE89cmVhbG0xMRQwEgYJKoZIhvcNAQkB
FgVtZWluZTCCASIwDQYJKoZIhvcNAQEBBQADggEPADCCAQoCggEBAM881DMOEsTm
2s22VqEcJrsmHIpKc6hYirYes4uZ0h0HwpKJecBp2MjfKGGYHrP+riu9eKn3bkfc
o6AWjIUCwU6S/XJu8MgDKZu4AG7Ag5XINCA2nLPl5OZ2c6MarUCW4FNUAOx2eZrG
DX62vSnsg/PLiaTLbAC6DMV4D/9puJT0BHBDP9ie16f7Xc51jtrnxAexnd5viEu2
TZrP+bz6n80ybfY6Cw0jQnjsl0K/Dk1gVuHTAvIZy4RXkOVwoaKDNYbi2oaf+YrE
ebNSKNrLuzTK09qRSs+NdqKya5v5lv0JKtoRI03wy9aysQ4SbJoZZZiHyuTuJM5E
rJCPnRvFKp0CAwEAAaOCAQ4wggEKMAsGA1UdDwQEAwIFoDAJBgNVHRMEAjAAMBEG
CWCGSAGG+EIBAQQEAwIGQDAzBglghkgBhvhCAQ0EJhYkT3BlblNTTCBHZW5lcmF0
ZWQgU2VydmVyIENlcnRpZmljYXRlMB0GA1UdDgQWBBRNB5Ct/x0N5xrd1i76ujTL
qh8kxjB0BgNVHSMEbTBrgBT0p8DMkUavZPOR8if4yLJviocyc6FIpEYwRDELMAkG
A1UEBhMCREUxDzANBgNVBAgMBkhlc3NlbjEUMBIGA1UECgwLcHJpdmFjeWlkZWEx
DjAMBgNVBAMMBUNBMDAxggkA+8jrrIPNEgcwEwYDVR0lBAwwCgYIKwYBBQUHAwEw
DQYJKoZIhvcNAQELBQADggEBAGA+bDamlNkLpsVwemPeQvrHb0ombz8mFij1cJYV
WzGHCo0lIWS++KzK/7hGKKC6oS2QvWOvJ33PscTj3/wmtOGgjGCntC+vBfCBNFkZ
amw/b5LxjJUmzteVyRqG9yXXDtMK2XHVjVzERlQDykZP4wNmGZZe3yJ1CpCzcA1D
xDAin9DZsPrfdNKlpSOUnv0g4szpLJQH462GJZZxe4d4sOmh+BcefmNy4myPXnaE
k62atOaidDrFu7qMOHcmh4slDv0pZ782eMTKqQdUhSTAxon3Dz/FrnoJpH4MJzgi
AVC9D1ugRfTvsXu0+btdeK3wduk5Nm+2+294tbOg+r0jUfc=
-----END CERTIFICATE-----
