Certificate:
    Data:
        Version: 3 (0x2)
        Serial Number: 268435695 (0x100000ef)
    Signature Algorithm: sha1WithRSAEncryption
        Issuer: C=DE, ST=Hessen, O=privacyidea, CN=CA001
        Validity
            Not Before: Feb 23 15:33:12 2017 GMT
            Not After : Feb 23 15:33:12 2018 GMT
        Subject: C=DE, ST=Hessen, O=privacyidea, CN=usercert
        Subject Public Key Info:
            Public Key Algorithm: rsaEncryption
                Public-Key: (2048 bit)
                Modulus:
                    00:dc:2f:d1:5f:29:97:d4:7c:c3:53:c8:30:bd:4b:
                    67:70:2c:24:6b:b8:5e:eb:21:7a:48:12:56:7c:81:
                    5c:48:75:b6:68:eb:f6:f2:98:4e:50:51:d1:7f:6c:
                    73:f3:0a:a7:ae:be:48:5e:e5:d6:e1:d9:2a:7c:32:
                    6e:4e:fd:08:f6:5a:54:49:23:73:c3:b9:07:18:d1:
                    ef:b3:ac:f8:8a:dc:94:96:a4:90:3a:8e:74:df:e6:
                    0d:37:1b:bd:5b:b7:25:1a:56:39:da:6f:91:aa:5e:
                    1c:74:f3:f9:7c:14:01:83:12:65:76:c7:bb:fe:36:
                    5b:95:e9:72:65:83:ed:3e:98:30:71:fa:87:dd:a3:
                    36:5a:30:03:2e:26:e0:61:d1:bf:02:3f:b6:06:1f:
                    4a:89:28:1c:5c:a2:ff:4e:be:94:e6:8c:e0:da:82:
                    f1:9d:29:32:48:30:73:b4:04:f6:42:1e:be:f7:e2:
                    32:32:27:3c:9d:89:2f:70:3e:85:9a:6f:5c:c5:09:
                    c0:8c:32:2f:72:22:c9:d2:95:1f:b6:ac:72:60:72:
                    b7:82:4d:6b:ce:5b:e3:00:d0:d2:2f:58:c6:e0:10:
                    e5:51:ca:4d:3b:2e:e6:7e:ab:84:d6:56:f1:93:35:
                    a0:93:64:26:81:75:2f:91:b5:16:06:38:0b:db:cc:
                    2d:07
                Exponent: 65537 (0x10001)
        X509v3 extensions:
            X509v3 Key Usage: 
                Digital Signature, Key Encipherment
            X509v3 Basic Constraints: 
                CA:FALSE
            Netscape Cert Type: 
                SSL Server
            Netscape Comment: 
                OpenSSL Generated Server Certificate
            X509v3 Subject Key Identifier: 
                FC:14:D1:F0:4B:8D:00:90:F2:F5:B8:71:9E:4E:97:C3:92:54:AD:0B
            X509v3 Authority Key Identifier: 
                keyid:F4:A7:C0:CC:91:46:AF:64:F3:91:F2:27:F8:C8:B2:6F:8A:87:32:73
                DirName:/C=DE/ST=Hessen/O=privacyidea/CN=CA001
                serial:FB:C8:EB:AC:83:CD:12:07

            X509v3 Extended Key Usage: 
                TLS Web Server Authentication
    Signature Algorithm: sha1WithRSAEncryption
         ac:9d:58:b5:04:3e:c7:d2:3d:4d:9f:fc:92:0c:96:83:ec:ce:
         bb:14:58:fb:ed:41:70:82:7f:c8:fa:e7:6d:26:18:c3:9b:62:
         7a:d0:cb:f6:06:51:1b:6d:37:5b:84:8f:08:f9:72:63:60:7d:
         15:67:75:05:35:25:47:4b:37:e8:73:6c:e7:94:dd:b2:75:a0:
         d0:44:9b:79:6b:34:fa:e9:5e:e5:bb:2f:91:75:02:6f:d6:12:
         aa:d2:37:e1:9d:06:71:78:79:47:82:15:40:c8:49:f1:96:ce:
         fd:37:e6:15:a4:da:4f:42:e8:04:72:55:21:a7:5b:78:42:81:
         c2:19:80:d0:50:b0:23:f4:f2:aa:5e:d6:ec:6e:bd:5d:5b:2e:
         d3:1b:1c:67:d4:41:5c:4c:d1:6b:5d:75:74:f7:34:3a:a1:bd:
         81:ac:3d:9c:55:67:80:29:d2:f5:22:b4:5c:2b:63:d0:a2:20:
         74:78:36:22:43:58:74:65:78:aa:d9:51:76:21:0b:3b:7d:84:
         4a:e4:a7:44:86:74:b0:a9:c5:14:55:30:fa:c3:47:d1:87:7f:
         e7:c1:eb:06:7c:06:a4:2e:1f:84:82:08:3f:64:6f:86:21:24:
         32:ad:b2:94:61:a9:21:35:5c:e2:8b:f4:28:3f:8a:eb:3e:59:
         c5:f6:b9:15
-----BEGIN CERTIFICATE-----
MIIEGTCCAwGgAwIBAgIEEAAA7zANBgkqhkiG9w0BAQUFADBEMQswCQYDVQQGEwJE
RTEPMA0GA1UECAwGSGVzc2VuMRQwEgYDVQQKDAtwcml2YWN5aWRlYTEOMAwGA1UE
AwwFQ0EwMDEwHhcNMTcwMjIzMTUzMzEyWhcNMTgwMjIzMTUzMzEyWjBHMQswCQYD
VQQGEwJERTEPMA0GA1UECAwGSGVzc2VuMRQwEgYDVQQKDAtwcml2YWN5aWRlYTER
MA8GA1UEAwwIdXNlcmNlcnQwggEiMA0GCSqGSIb3DQEBAQUAA4IBDwAwggEKAoIB
AQDcL9FfKZfUfMNTyDC9S2dwLCRruF7rIXpIElZ8gVxIdbZo6/bymE5QUdF/bHPz
Cqeuvkhe5dbh2Sp8Mm5O/Qj2WlRJI3PDuQcY0e+zrPiK3JSWpJA6jnTf5g03G71b
tyUaVjnab5GqXhx08/l8FAGDEmV2x7v+NluV6XJlg+0+mDBx+ofdozZaMAMuJuBh
0b8CP7YGH0qJKBxcov9OvpTmjODagvGdKTJIMHO0BPZCHr734jIyJzydiS9wPoWa
b1zFCcCMMi9yIsnSlR+2rHJgcreCTWvOW+MA0NIvWMbgEOVRyk07LuZ+q4TWVvGT
NaCTZCaBdS+RtRYGOAvbzC0HAgMBAAGjggEOMIIBCjALBgNVHQ8EBAMCBaAwCQYD
VR0TBAIwADARBglghkgBhvhCAQEEBAMCBkAwMwYJYIZIAYb4QgENBCYWJE9wZW5T
U0wgR2VuZXJhdGVkIFNlcnZlciBDZXJ0aWZpY2F0ZTAdBgNVHQ4EFgQU/BTR8EuN
AJDy9bhxnk6Xw5JUrQswdAYDVR0jBG0wa4AU9KfAzJFGr2TzkfIn+Miyb4qHMnOh
SKRGMEQxCzAJBgNVBAYTAkRFMQ8wDQYDVQQIDAZIZXNzZW4xFDASBgNVBAoMC3By
aXZhY3lpZGVhMQ4wDAYDVQQDDAVDQTAwMYIJAPvI66yDzRIHMBMGA1UdJQQMMAoG
CCsGAQUFBwMBMA0GCSqGSIb3DQEBBQUAA4IBAQCsnVi1BD7H0j1Nn/ySDJaD7M67
FFj77UFwgn/I+udtJhjDm2J60Mv2BlEbbTdbhI8I+XJjYH0VZ3UFNSVHSzfoc2zn
lN2ydaDQRJt5azT66V7luy+RdQJv1hKq0jfhnQZxeHlHghVAyEnxls79N+YVpNpP
QugEclUhp1t4QoHCGYDQULAj9PKqXtbsbr1dWy7TGxxn1EFcTNFrXXV09zQ6ob2B
rD2cVWeAKdL1IrRcK2PQoiB0eDYiQ1h0ZXiq2VF2IQs7fYRK5KdEhnSwqcUUVTD6
w0fRh3/nwesGfAakLh+Eggg/ZG+GISQyrbKUYakhNVzii/QoP4rrPlnF9rkV
-----END CERTIFICATE-----
