Certificate:
    Data:
        Version: 3 (0x2)
        Serial Number: 268435694 (0x100000ee)
    Signature Algorithm: sha1WithRSAEncryption
        Issuer: C=DE, ST=Hessen, O=privacyidea, CN=CA001
        Validity
            Not Before: Feb 23 15:33:12 2017 GMT
            Not After : Feb 23 15:33:12 2018 GMT
        Subject: C=DE, ST=Hessen, O=privacyidea, CN=requester.localdomain
        Subject Public Key Info:
            Public Key Algorithm: rsaEncryption
                Public-Key: (2048 bit)
                Modulus:
                    00:cd:be:14:4f:fa:ce:01:3f:42:22:1b:1d:9c:af:
                    dd:92:d2:7f:db:6c:b7:3e:39:43:43:6b:13:03:f1:
                    05:f4:07:74:bc:76:69:28:0b:af:19:8e:d7:fc:e3:
                    cd:c6:58:f2:ca:7f:08:6d:53:fc:07:02:44:24:c6:
                    b4:34:4c:8c:04:fe:33:0e:40:e2:20:ba:02:73:5a:
                    f7:f5:4f:63:6e:cc:c6:b6:df:54:1d:37:39:7d:51:
                    36:26:5f:bd:dc:3f:a8:8b:6b:a2:ae:b6:9d:d6:21:
                    e7:df:41:b8:7a:28:2a:68:48:ca:a8:2d:ed:e1:e9:
                    46:5e:5a:72:6d:b4:84:38:87:91:fd:94:11:0b:28:
                    84:c6:c2:2f:2a:fb:01:f9:36:7a:09:75:d1:33:88:
                    3c:73:41:5b:c8:bf:94:89:70:a1:f0:c0:b9:2e:50:
                    53:1e:b1:17:64:69:f4:2d:81:e0:a9:0d:0e:32:e9:
                    ba:55:8a:85:f1:1b:6f:49:79:b4:7f:88:c3:0d:3e:
                    54:88:9b:3d:1f:38:8c:04:f3:ee:6a:63:2b:f5:c6:
                    db:b4:83:aa:c4:78:41:3a:7d:4b:e1:c8:3e:71:ca:
                    1b:61:59:ea:c6:c4:ca:32:5e:c9:e9:bf:12:29:e6:
                    c6:c3:63:fe:a0:55:da:7a:f1:60:98:4d:26:ed:fa:
                    70:2d
                Exponent: 65537 (0x10001)
        X509v3 extensions:
            X509v3 Key Usage: 
                Digital Signature, Key Encipherment
            X509v3 Basic Constraints: 
                CA:FALSE
            Netscape Cert Type: 
                SSL Server
            Netscape Comment: 
                OpenSSL Generated Server Certificate
            X509v3 Subject Key Identifier: 
                53:3F:ED:5D:09:07:B3:65:7B:AB:45:C9:24:5B:09:77:80:0A:96:ED
            X509v3 Authority Key Identifier: 
                keyid:F4:A7:C0:CC:91:46:AF:64:F3:91:F2:27:F8:C8:B2:6F:8A:87:32:73
                DirName:/C=DE/ST=Hessen/O=privacyidea/CN=CA001
                serial:FB:C8:EB:AC:83:CD:12:07

            X509v3 Extended Key Usage: 
                TLS Web Server Authentication
    Signature Algorithm: sha1WithRSAEncryption
         7c:ea:fd:59:db:a1:33:a9:6e:dc:1f:2a:b2:a7:c8:3e:df:51:
         db:50:aa:4c:2c:b5:20:72:68:4a:c6:46:de:0f:6f:8c:cf:dd:
         9c:f6:37:5a:3f:e6:6e:e1:e5:d9:57:45:b2:ce:29:dd:c4:27:
         ac:45:cd:8e:34:e5:82:fa:22:c6:4d:ae:45:1c:d7:b9:9d:dd:
         ad:c3:23:d4:eb:09:97:eb:17:ed:d0:88:12:29:bd:46:98:81:
         55:5b:27:25:60:7f:00:d1:a3:ad:fd:ed:d1:96:16:47:7f:f3:
         9c:63:0d:8b:59:b9:92:ab:b1:46:a9:60:6e:e0:24:bc:f2:b7:
         b5:76:39:f5:8c:c8:7e:64:eb:7b:08:4f:8b:9a:fe:a3:86:c2:
         6f:e0:4c:4a:84:d0:2f:76:1f:e4:10:d6:8d:49:fd:1e:37:59:
         09:16:49:99:de:c8:3b:c7:c8:7c:97:27:89:83:a2:48:63:48:
         d8:59:8d:5e:79:b7:69:e9:0b:8c:48:7f:b7:e0:ef:39:00:a9:
         03:73:02:6c:6b:ee:c7:d9:74:e9:b7:6f:04:9e:73:c1:2c:77:
         69:c4:8d:73:fc:67:8b:bf:c5:42:97:c0:c7:54:5b:ef:e4:3f:
         88:2e:94:ec:2e:2e:1f:10:61:b2:48:fd:19:4e:07:cd:c0:7f:
         ea:3c:6d:13
-----BEGIN CERTIFICATE-----
MIIEJjCCAw6gAwIBAgIEEAAA7jANBgkqhkiG9w0BAQUFADBEMQswCQYDVQQGEwJE
RTEPMA0GA1UECAwGSGVzc2VuMRQwEgYDVQQKDAtwcml2YWN5aWRlYTEOMAwGA1UE
AwwFQ0EwMDEwHhcNMTcwMjIzMTUzMzEyWhcNMTgwMjIzMTUzMzEyWjBUMQswCQYD
VQQGEwJERTEPMA0GA1UECAwGSGVzc2VuMRQwEgYDVQQKDAtwcml2YWN5aWRlYTEe
MBwGA1UEAwwVcmVxdWVzdGVyLmxvY2FsZG9tYWluMIIBIjANBgkqhkiG9w0BAQEF
AAOCAQ8AMIIBCgKCAQEAzb4UT/rOAT9CIhsdnK/dktJ/22y3PjlDQ2sTA/EF9Ad0
vHZpKAuvGY7X/OPNxljyyn8IbVP8BwJEJMa0NEyMBP4zDkDiILoCc1r39U9jbszG
tt9UHTc5fVE2Jl+93D+oi2uirrad1iHn30G4eigqaEjKqC3t4elGXlpybbSEOIeR
/ZQRCyiExsIvKvsB+TZ6CXXRM4g8c0FbyL+UiXCh8MC5LlBTHrEXZGn0LYHgqQ0O
Mum6VYqF8RtvSXm0f4jDDT5UiJs9HziMBPPuamMr9cbbtIOqxHhBOn1L4cg+ccob
YVnqxsTKMl7J6b8SKebGw2P+oFXaevFgmE0m7fpwLQIDAQABo4IBDjCCAQowCwYD
VR0PBAQDAgWgMAkGA1UdEwQCMAAwEQYJYIZIAYb4QgEBBAQDAgZAMDMGCWCGSAGG
+EIBDQQmFiRPcGVuU1NMIEdlbmVyYXRlZCBTZXJ2ZXIgQ2VydGlmaWNhdGUwHQYD
VR0OBBYEFFM/7V0JB7Nle6tFySRbCXeACpbtMHQGA1UdIwRtMGuAFPSnwMyRRq9k
85HyJ/jIsm+KhzJzoUikRjBEMQswCQYDVQQGEwJERTEPMA0GA1UECAwGSGVzc2Vu
MRQwEgYDVQQKDAtwcml2YWN5aWRlYTEOMAwGA1UEAwwFQ0EwMDGCCQD7yOusg80S
BzATBgNVHSUEDDAKBggrBgEFBQcDATANBgkqhkiG9w0BAQUFAAOCAQEAfOr9Wduh
M6lu3B8qsqfIPt9R21CqTCy1IHJoSsZG3g9vjM/dnPY3Wj/mbuHl2VdFss4p3cQn
rEXNjjTlgvoixk2uRRzXuZ3drcMj1OsJl+sX7dCIEim9RpiBVVsnJWB/ANGjrf3t
0ZYWR3/znGMNi1m5kquxRqlgbuAkvPK3tXY59YzIfmTrewhPi5r+o4bCb+BMSoTQ
L3Yf5BDWjUn9HjdZCRZJmd7IO8fIfJcniYOiSGNI2FmNXnm3aekLjEh/t+DvOQCp
A3MCbGvux9l06bdvBJ5zwSx3acSNc/xni7/FQpfAx1Rb7+Q/iC6U7C4uHxBhskj9
GU4HzcB/6jxtEw==
-----END CERTIFICATE-----
