Certificate:
    Data:
        Version: 3 (0x2)
        Serial Number: 268435675 (0x100000db)
    Signature Algorithm: sha256WithRSAEncryption
        Issuer: C=DE, ST=Hessen, O=privacyidea, CN=CA001
        Validity
            Not Before: Apr 22 11:51:27 2017 GMT
            Not After : Apr 22 11:51:27 2018 GMT
        Subject: CN=Steve Test/emailAddress=steve@openssl.org
        Subject Public Key Info:
            Public Key Algorithm: rsaEncryption
                Public-Key: (2048 bit)
                Modulus:
                    00:d2:81:89:20:51:48:0f:73:f4:11:32:24:d5:1f:
                    1c:fd:5c:f5:b6:e6:c5:f0:52:81:dc:d2:af:66:4a:
                    7c:93:31:61:5c:af:d1:6d:06:70:03:60:7c:72:0c:
                    88:dd:49:cd:9e:02:6c:d2:5a:d7:53:0f:f3:da:be:
                    69:64:b5:0f:0c:00:e3:b3:50:47:a3:b3:9b:ba:13:
                    50:d6:58:5a:4b:ab:39:e0:11:ca:0a:27:67:03:78:
                    22:66:6d:92:1e:1b:5c:49:ae:e6:6b:d1:8e:3b:9d:
                    06:d3:c6:ac:4d:53:43:10:ab:e8:96:c1:87:82:97:
                    99:8f:20:d3:99:12:37:31:84:e1:8a:ff:29:03:5f:
                    22:90:3e:7f:9b:e0:20:c1:ad:dc:ae:4c:39:1a:31:
                    96:17:02:8c:b2:d9:b4:0d:20:12:9b:7d:86:54:fd:
                    33:fd:c1:2a:62:46:f8:60:96:cf:6e:01:6f:22:df:
                    13:47:e7:97:ec:05:72:23:a3:62:f8:fa:ef:ac:9c:
                    72:f0:37:cb:2f:37:cf:90:a8:27:51:86:c6:d7:78:
                    08:8f:7e:25:a2:15:70:a2:fb:1c:b6:15:5e:a0:97:
                    8b:81:4c:09:28:8a:27:3b:94:bc:71:db:5b:71:37:
                    9a:2b:16:e0:6f:b5:c9:f5:4b:4f:20:ba:65:cf:af:
                    ad:ad
                Exponent: 65537 (0x10001)
        X509v3 extensions:
            X509v3 Key Usage: 
                Digital Signature, Key Encipherment
            X509v3 Basic Constraints: 
                CA:FALSE
            Netscape Cert Type: 
                SSL Server
            Netscape Comment: 
                OpenSSL Generated Server Certificate
            X509v3 Subject Key Identifier: 
                E5:25:6D:3E:AF:0D:DD:3F:4C:F2:45:19:39:D5:14:DB:7E:9C:C0:AD
            X509v3 Authority Key Identifier: 
                keyid:F4:A7:C0:CC:91:46:AF:64:F3:91:F2:27:F8:C8:B2:6F:8A:87:32:73
                DirName:/C=DE/ST=Hessen/O=privacyidea/CN=CA001
                serial:FB:C8:EB:AC:83:CD:12:07

            X509v3 Extended Key Usage: 
                TLS Web Server Authentication
    Signature Algorithm: sha256WithRSAEncryption
         92:9c:8f:c8:07:bd:04:50:f8:e5:aa:b4:f6:9c:d8:ed:c6:bb:
         85:0a:f1:5d:de:cb:21:b4:8d:15:23:3e:ab:c5:9a:05:6e:65:
         4a:7a:f7:61:da:03:6d:40:c5:f2:9d:97:af:25:4c:53:2e:36:
         f4:c7:e6:a5:7c:bf:5f:b6:d9:61:fc:65:16:6b:49:15:16:33:
         7b:49:4c:12:09:18:da:c2:03:07:34:b4:dc:7a:c5:36:99:dc:
         9a:02:ea:a1:59:34:7d:8d:8a:59:6e:8e:9d:3a:c5:50:a4:90:
         36:2e:1c:8d:3a:bb:db:1b:6a:aa:4f:ed:da:23:f4:3f:63:21:
         70:c1:80:22:1a:b4:a2:51:5f:26:e8:77:18:8e:d3:8c:2b:48:
         5b:78:73:16:1b:5c:49:5b:e8:f2:31:3c:aa:b9:ea:ca:e8:f6:
         a5:9a:40:3d:c5:ab:b7:73:84:f6:7e:4f:66:b0:69:87:33:5f:
         31:13:a4:c1:9b:14:ec:0a:ea:93:0a:d4:75:2e:9d:07:4d:95:
         66:50:b3:a8:70:25:b4:db:09:db:1e:0a:68:2d:02:82:aa:87:
         1a:89:d2:4e:a1:d2:6c:97:2b:da:bb:8b:39:8f:a4:52:b0:a0:
         67:96:da:ed:67:ef:b6:7d:5d:28:4e:c3:7c:92:1c:5a:29:17:
         4e:61:9b:65
-----BEGIN CERTIFICATE-----
MIIECTCCAvGgAwIBAgIEEAAA2zANBgkqhkiG9w0BAQsFADBEMQswCQYDVQQGEwJE
RTEPMA0GA1UECAwGSGVzc2VuMRQwEgYDVQQKDAtwcml2YWN5aWRlYTEOMAwGA1UE
AwwFQ0EwMDEwHhcNMTcwNDIyMTE1MTI3WhcNMTgwNDIyMTE1MTI3WjA3MRMwEQYD
VQQDDApTdGV2ZSBUZXN0MSAwHgYJKoZIhvcNAQkBFhFzdGV2ZUBvcGVuc3NsLm9y
ZzCCASIwDQYJKoZIhvcNAQEBBQADggEPADCCAQoCggEBANKBiSBRSA9z9BEyJNUf
HP1c9bbmxfBSgdzSr2ZKfJMxYVyv0W0GcANgfHIMiN1JzZ4CbNJa11MP89q+aWS1
DwwA47NQR6Ozm7oTUNZYWkurOeARygonZwN4ImZtkh4bXEmu5mvRjjudBtPGrE1T
QxCr6JbBh4KXmY8g05kSNzGE4Yr/KQNfIpA+f5vgIMGt3K5MORoxlhcCjLLZtA0g
Ept9hlT9M/3BKmJG+GCWz24BbyLfE0fnl+wFciOjYvj676yccvA3yy83z5CoJ1GG
xtd4CI9+JaIVcKL7HLYVXqCXi4FMCSiKJzuUvHHbW3E3misW4G+1yfVLTyC6Zc+v
ra0CAwEAAaOCAQ4wggEKMAsGA1UdDwQEAwIFoDAJBgNVHRMEAjAAMBEGCWCGSAGG
+EIBAQQEAwIGQDAzBglghkgBhvhCAQ0EJhYkT3BlblNTTCBHZW5lcmF0ZWQgU2Vy
dmVyIENlcnRpZmljYXRlMB0GA1UdDgQWBBTlJW0+rw3dP0zyRRk51RTbfpzArTB0
BgNVHSMEbTBrgBT0p8DMkUavZPOR8if4yLJviocyc6FIpEYwRDELMAkGA1UEBhMC
REUxDzANBgNVBAgMBkhlc3NlbjEUMBIGA1UECgwLcHJpdmFjeWlkZWExDjAMBgNV
BAMMBUNBMDAxggkA+8jrrIPNEgcwEwYDVR0lBAwwCgYIKwYBBQUHAwEwDQYJKoZI
hvcNAQELBQADggEBAJKcj8gHvQRQ+OWqtPac2O3Gu4UK8V3eyyG0jRUjPqvFmgVu
ZUp692HaA21AxfKdl68lTFMuNvTH5qV8v1+22WH8ZRZrSRUWM3tJTBIJGNrCAwc0
tNx6xTaZ3JoC6qFZNH2Nillujp06xVCkkDYuHI06u9sbaqpP7doj9D9jIXDBgCIa
tKJRXybodxiO04wrSFt4cxYbXElb6PIxPKq56sro9qWaQD3Fq7dzhPZ+T2awaYcz
XzETpMGbFOwK6pMK1HUunQdNlWZQs6hwJbTbCdseCmgtAoKqhxqJ0k6h0myXK9q7
izmPpFKwoGeW2u1n77Z9XShOw3ySHFopF05hm2U=
-----END CERTIFICATE-----
