Certificate:
    Data:
        Version: 3 (0x2)
        Serial Number: 268435674 (0x100000da)
    Signature Algorithm: sha256WithRSAEncryption
        Issuer: C=DE, ST=Hessen, O=privacyidea, CN=CA001
        Validity
            Not Before: Apr 22 11:51:27 2017 GMT
            Not After : Apr 22 11:51:27 2018 GMT
        Subject: C=DE, ST=Hessen, O=privacyidea, CN=usercert
        Subject Public Key Info:
            Public Key Algorithm: rsaEncryption
                Public-Key: (2048 bit)
                Modulus:
                    00:dc:2f:d1:5f:29:97:d4:7c:c3:53:c8:30:bd:4b:
                    67:70:2c:24:6b:b8:5e:eb:21:7a:48:12:56:7c:81:
                    5c:48:75:b6:68:eb:f6:f2:98:4e:50:51:d1:7f:6c:
                    73:f3:0a:a7:ae:be:48:5e:e5:d6:e1:d9:2a:7c:32:
                    6e:4e:fd:08:f6:5a:54:49:23:73:c3:b9:07:18:d1:
                    ef:b3:ac:f8:8a:dc:94:96:a4:90:3a:8e:74:df:e6:
                    0d:37:1b:bd:5b:b7:25:1a:56:39:da:6f:91:aa:5e:
                    1c:74:f3:f9:7c:14:01:83:12:65:76:c7:bb:fe:36:
                    5b:95:e9:72:65:83:ed:3e:98:30:71:fa:87:dd:a3:
                    36:5a:30:03:2e:26:e0:61:d1:bf:02:3f:b6:06:1f:
                    4a:89:28:1c:5c:a2:ff:4e:be:94:e6:8c:e0:da:82:
                    f1:9d:29:32:48:30:73:b4:04:f6:42:1e:be:f7:e2:
                    32:32:27:3c:9d:89:2f:70:3e:85:9a:6f:5c:c5:09:
                    c0:8c:32:2f:72:22:c9:d2:95:1f:b6:ac:72:60:72:
                    b7:82:4d:6b:ce:5b:e3:00:d0:d2:2f:58:c6:e0:10:
                    e5:51:ca:4d:3b:2e:e6:7e:ab:84:d6:56:f1:93:35:
                    a0:93:64:26:81:75:2f:91:b5:16:06:38:0b:db:cc:
                    2d:07
                Exponent: 65537 (0x10001)
        X509v3 extensions:
            X509v3 Key Usage: 
                Digital Signature, Key Encipherment
            X509v3 Basic Constraints: 
                CA:FALSE
            Netscape Cert Type: 
                SSL Server
            Netscape Comment: 
                OpenSSL Generated Server Certificate
            X509v3 Subject Key Identifier: 
                FC:14:D1:F0:4B:8D:00:90:F2:F5:B8:71:9E:4E:97:C3:92:54:AD:0B
            X509v3 Authority Key Identifier: 
                keyid:F4:A7:C0:CC:91:46:AF:64:F3:91:F2:27:F8:C8:B2:6F:8A:87:32:73
                DirName:/C=DE/ST=Hessen/O=privacyidea/CN=CA001
                serial:FB:C8:EB:AC:83:CD:12:07

            X509v3 Extended Key Usage: 
                TLS Web Server Authentication
    Signature Algorithm: sha256WithRSAEncryption
         80:36:1d:96:07:59:f1:2e:37:e7:40:97:f8:ae:9c:b8:d6:8b:
         b2:f6:ff:5e:a3:a5:0d:59:5d:8e:ec:d9:c1:40:87:25:bf:87:
         36:25:88:1e:f1:55:69:bd:df:09:35:10:b6:27:a2:f2:ce:bd:
         b2:85:0e:ec:94:14:0e:8b:61:c0:ae:8a:5b:6a:60:db:f6:9d:
         d9:10:cc:33:23:12:b1:d4:17:88:39:0c:26:56:7b:62:70:9f:
         b9:d0:71:0b:15:35:4e:fd:b9:2c:11:7a:b6:89:6a:51:2b:43:
         97:c8:d4:85:65:7a:c6:2a:67:5e:fb:f5:32:12:45:e6:98:ef:
         24:5e:08:12:7b:fb:30:d5:48:4a:f8:8e:b4:5c:45:4e:98:c3:
         eb:79:97:91:01:54:08:c7:27:69:28:14:f1:78:70:30:21:0a:
         47:5a:b1:0f:18:d7:b7:b9:df:ef:bd:2a:a1:b2:74:98:40:2d:
         24:a5:94:5a:e9:39:f8:0a:71:47:2a:f6:10:f5:99:46:ce:ee:
         f4:17:26:64:05:43:91:01:a2:01:68:5c:2a:05:79:85:9f:44:
         e6:95:8b:f1:88:be:f7:05:eb:61:82:ab:1a:4b:3f:f9:f1:2d:
         68:22:7f:7b:93:6b:cb:d2:87:6d:15:93:69:46:e7:ea:2a:35:
         30:2e:00:e4
-----BEGIN CERTIFICATE-----
MIIEGTCCAwGgAwIBAgIEEAAA2jANBgkqhkiG9w0BAQsFADBEMQswCQYDVQQGEwJE
RTEPMA0GA1UECAwGSGVzc2VuMRQwEgYDVQQKDAtwcml2YWN5aWRlYTEOMAwGA1UE
AwwFQ0EwMDEwHhcNMTcwNDIyMTE1MTI3WhcNMTgwNDIyMTE1MTI3WjBHMQswCQYD
VQQGEwJERTEPMA0GA1UECAwGSGVzc2VuMRQwEgYDVQQKDAtwcml2YWN5aWRlYTER
MA8GA1UEAwwIdXNlcmNlcnQwggEiMA0GCSqGSIb3DQEBAQUAA4IBDwAwggEKAoIB
AQDcL9FfKZfUfMNTyDC9S2dwLCRruF7rIXpIElZ8gVxIdbZo6/bymE5QUdF/bHPz
Cqeuvkhe5dbh2Sp8Mm5O/Qj2WlRJI3PDuQcY0e+zrPiK3JSWpJA6jnTf5g03G71b
tyUaVjnab5GqXhx08/l8FAGDEmV2x7v+NluV6XJlg+0+mDBx+ofdozZaMAMuJuBh
0b8CP7YGH0qJKBxcov9OvpTmjODagvGdKTJIMHO0BPZCHr734jIyJzydiS9wPoWa
b1zFCcCMMi9yIsnSlR+2rHJgcreCTWvOW+MA0NIvWMbgEOVRyk07LuZ+q4TWVvGT
NaCTZCaBdS+RtRYGOAvbzC0HAgMBAAGjggEOMIIBCjALBgNVHQ8EBAMCBaAwCQYD
VR0TBAIwADARBglghkgBhvhCAQEEBAMCBkAwMwYJYIZIAYb4QgENBCYWJE9wZW5T
U0wgR2VuZXJhdGVkIFNlcnZlciBDZXJ0aWZpY2F0ZTAdBgNVHQ4EFgQU/BTR8EuN
AJDy9bhxnk6Xw5JUrQswdAYDVR0jBG0wa4AU9KfAzJFGr2TzkfIn+Miyb4qHMnOh
SKRGMEQxCzAJBgNVBAYTAkRFMQ8wDQYDVQQIDAZIZXNzZW4xFDASBgNVBAoMC3By
aXZhY3lpZGVhMQ4wDAYDVQQDDAVDQTAwMYIJAPvI66yDzRIHMBMGA1UdJQQMMAoG
CCsGAQUFBwMBMA0GCSqGSIb3DQEBCwUAA4IBAQCANh2WB1nxLjfnQJf4rpy41ouy
9v9eo6UNWV2O7NnBQIclv4c2JYge8VVpvd8JNRC2J6Lyzr2yhQ7slBQOi2HAropb
amDb9p3ZEMwzIxKx1BeIOQwmVnticJ+50HELFTVO/bksEXq2iWpRK0OXyNSFZXrG
Kmde+/UyEkXmmO8kXggSe/sw1UhK+I60XEVOmMPreZeRAVQIxydpKBTxeHAwIQpH
WrEPGNe3ud/vvSqhsnSYQC0kpZRa6Tn4CnFHKvYQ9ZlGzu70FyZkBUORAaIBaFwq
BXmFn0TmlYvxiL73BethgqsaSz/58S1oIn97k2vL0odtFZNpRufqKjUwLgDk
-----END CERTIFICATE-----
