Certificate:
    Data:
        Version: 3 (0x2)
        Serial Number: 268435670 (0x100000d6)
    Signature Algorithm: sha256WithRSAEncryption
        Issuer: C=DE, ST=Hessen, O=privacyidea, CN=CA001
        Validity
            Not Before: Apr 25 15:06:31 2017 GMT
            Not After : Apr 25 15:06:31 2018 GMT
        Subject: OU=realm1, CN=cornelius/emailAddress=user@localhost.localdomain
        Subject Public Key Info:
            Public Key Algorithm: rsaEncryption
                Public-Key: (2048 bit)
                Modulus:
                    00:ce:d3:4e:fd:f1:43:5c:bd:79:77:66:c7:92:98:
                    3b:51:2d:d2:76:4d:cd:b0:5d:13:90:00:ba:f8:6b:
                    e7:19:4c:39:c5:0f:db:f3:48:67:a9:6b:d9:c3:12:
                    a4:8f:c2:00:91:43:b4:ca:77:54:e5:ca:7e:5a:76:
                    c8:59:5a:31:38:b7:bb:0b:43:14:74:ef:79:34:ca:
                    58:bb:de:40:42:aa:6b:d9:83:d9:24:f6:24:dd:e2:
                    3c:47:6e:3b:9f:74:aa:83:3d:8e:f3:9a:6e:36:ae:
                    c8:ce:51:1f:1f:e9:51:78:47:26:dd:a1:1d:77:05:
                    04:3b:3a:83:5c:d1:61:2c:9f:d6:8c:bc:49:b0:da:
                    42:f3:70:92:12:f8:83:73:13:b6:5b:fc:03:56:f4:
                    4d:d2:fb:30:70:88:78:3e:a2:80:00:08:12:85:49:
                    b0:58:08:80:08:d1:86:f8:d1:0b:6b:00:28:fe:84:
                    1b:f4:f4:78:bf:95:d6:15:d3:0c:99:83:db:57:cc:
                    eb:a6:c5:2b:24:95:02:b9:02:da:5b:23:1f:0b:5f:
                    61:b4:65:b5:d7:76:6e:56:07:77:47:3c:16:66:c7:
                    b1:94:21:3d:47:4b:41:9e:23:19:9d:2f:d7:d3:29:
                    87:40:52:51:c5:3a:c9:b5:ce:a1:cc:79:a5:9c:d3:
                    12:75
                Exponent: 65537 (0x10001)
        X509v3 extensions:
            X509v3 Key Usage: 
                Digital Signature, Key Encipherment
            X509v3 Basic Constraints: 
                CA:FALSE
            Netscape Cert Type: 
                SSL Server
            Netscape Comment: 
                OpenSSL Generated Server Certificate
            X509v3 Subject Key Identifier: 
                6E:EB:77:B9:49:CF:B4:E6:65:42:FE:BA:22:33:ED:6C:73:6D:D4:3E
            X509v3 Authority Key Identifier: 
                keyid:F4:A7:C0:CC:91:46:AF:64:F3:91:F2:27:F8:C8:B2:6F:8A:87:32:73
                DirName:/C=DE/ST=Hessen/O=privacyidea/CN=CA001
                serial:FB:C8:EB:AC:83:CD:12:07

            X509v3 Extended Key Usage: 
                TLS Web Server Authentication
    Signature Algorithm: sha256WithRSAEncryption
         58:e2:73:77:87:64:54:18:33:bd:e0:06:d1:d7:29:be:6a:d2:
         b9:6a:d5:0c:c6:21:7a:4d:4c:1d:f4:b4:cc:b9:50:4f:c9:5a:
         0e:88:c0:8c:7e:ec:6d:d1:2a:2d:27:b3:4a:c0:a2:d3:22:84:
         57:07:f6:6e:51:b9:27:33:37:27:d8:7f:a6:8e:ec:bf:43:3a:
         f2:8e:29:92:17:bb:f6:67:4f:97:3b:c1:14:90:54:ad:2f:63:
         df:77:e2:47:54:59:50:44:1b:09:12:ae:cb:63:b3:bf:68:95:
         12:94:ca:d9:d0:88:8d:e0:73:dc:b5:99:f5:d5:df:c1:ab:53:
         e7:10:c5:c0:84:11:1d:45:d9:63:8a:1f:43:fa:3a:33:96:3a:
         15:86:e2:59:46:10:9f:c8:2a:ee:1e:19:f7:54:eb:9f:68:d3:
         80:e5:01:a2:5c:2d:11:fc:34:bc:4d:3e:8e:aa:bf:88:07:d9:
         7e:7c:1f:1d:40:e3:ae:2e:d2:29:4a:b5:6c:4f:5c:05:55:96:
         0e:a5:c1:f5:e4:d1:df:96:71:85:8c:71:7c:13:5d:49:73:35:
         ee:67:06:1a:4e:9b:94:14:59:7f:d4:8c:a9:99:a3:7a:13:a2:
         00:ca:ec:27:ed:97:01:c4:8f:2f:80:61:96:be:3f:e2:95:32:
         7a:e3:5c:a1
-----BEGIN CERTIFICATE-----
MIIEIjCCAwqgAwIBAgIEEAAA1jANBgkqhkiG9w0BAQsFADBEMQswCQYDVQQGEwJE
RTEPMA0GA1UECAwGSGVzc2VuMRQwEgYDVQQKDAtwcml2YWN5aWRlYTEOMAwGA1UE
AwwFQ0EwMDEwHhcNMTcwNDI1MTUwNjMxWhcNMTgwNDI1MTUwNjMxWjBQMQ8wDQYD
VQQLDAZyZWFsbTExEjAQBgNVBAMMCWNvcm5lbGl1czEpMCcGCSqGSIb3DQEJARYa
dXNlckBsb2NhbGhvc3QubG9jYWxkb21haW4wggEiMA0GCSqGSIb3DQEBAQUAA4IB
DwAwggEKAoIBAQDO00798UNcvXl3ZseSmDtRLdJ2Tc2wXROQALr4a+cZTDnFD9vz
SGepa9nDEqSPwgCRQ7TKd1Tlyn5adshZWjE4t7sLQxR073k0yli73kBCqmvZg9kk
9iTd4jxHbjufdKqDPY7zmm42rsjOUR8f6VF4RybdoR13BQQ7OoNc0WEsn9aMvEmw
2kLzcJIS+INzE7Zb/ANW9E3S+zBwiHg+ooAACBKFSbBYCIAI0Yb40QtrACj+hBv0
9Hi/ldYV0wyZg9tXzOumxSsklQK5AtpbIx8LX2G0ZbXXdm5WB3dHPBZmx7GUIT1H
S0GeIxmdL9fTKYdAUlHFOsm1zqHMeaWc0xJ1AgMBAAGjggEOMIIBCjALBgNVHQ8E
BAMCBaAwCQYDVR0TBAIwADARBglghkgBhvhCAQEEBAMCBkAwMwYJYIZIAYb4QgEN
BCYWJE9wZW5TU0wgR2VuZXJhdGVkIFNlcnZlciBDZXJ0aWZpY2F0ZTAdBgNVHQ4E
FgQUbut3uUnPtOZlQv66IjPtbHNt1D4wdAYDVR0jBG0wa4AU9KfAzJFGr2TzkfIn
+Miyb4qHMnOhSKRGMEQxCzAJBgNVBAYTAkRFMQ8wDQYDVQQIDAZIZXNzZW4xFDAS
BgNVBAoMC3ByaXZhY3lpZGVhMQ4wDAYDVQQDDAVDQTAwMYIJAPvI66yDzRIHMBMG
A1UdJQQMMAoGCCsGAQUFBwMBMA0GCSqGSIb3DQEBCwUAA4IBAQBY4nN3h2RUGDO9
4AbR1ym+atK5atUMxiF6TUwd9LTMuVBPyVoOiMCMfuxt0SotJ7NKwKLTIoRXB/Zu
UbknMzcn2H+mjuy/QzryjimSF7v2Z0+XO8EUkFStL2Pfd+JHVFlQRBsJEq7LY7O/
aJUSlMrZ0IiN4HPctZn11d/Bq1PnEMXAhBEdRdljih9D+jozljoVhuJZRhCfyCru
Hhn3VOufaNOA5QGiXC0R/DS8TT6Oqr+IB9l+fB8dQOOuLtIpSrVsT1wFVZYOpcH1
5NHflnGFjHF8E11JczXuZwYaTpuUFFl/1IypmaN6E6IAyuwn7ZcBxI8vgGGWvj/i
lTJ641yh
-----END CERTIFICATE-----
