Certificate:
    Data:
        Version: 3 (0x2)
        Serial Number: 268435677 (0x100000dd)
    Signature Algorithm: sha256WithRSAEncryption
        Issuer: C=DE, ST=Hessen, O=privacyidea, CN=CA001
        Validity
            Not Before: Apr 22 11:55:05 2017 GMT
            Not After : Apr 22 11:55:05 2018 GMT
        Subject: C=DE, ST=Hessen, O=privacyidea, CN=requester.localdomain
        Subject Public Key Info:
            Public Key Algorithm: rsaEncryption
                Public-Key: (2048 bit)
                Modulus:
                    00:cd:be:14:4f:fa:ce:01:3f:42:22:1b:1d:9c:af:
                    dd:92:d2:7f:db:6c:b7:3e:39:43:43:6b:13:03:f1:
                    05:f4:07:74:bc:76:69:28:0b:af:19:8e:d7:fc:e3:
                    cd:c6:58:f2:ca:7f:08:6d:53:fc:07:02:44:24:c6:
                    b4:34:4c:8c:04:fe:33:0e:40:e2:20:ba:02:73:5a:
                    f7:f5:4f:63:6e:cc:c6:b6:df:54:1d:37:39:7d:51:
                    36:26:5f:bd:dc:3f:a8:8b:6b:a2:ae:b6:9d:d6:21:
                    e7:df:41:b8:7a:28:2a:68:48:ca:a8:2d:ed:e1:e9:
                    46:5e:5a:72:6d:b4:84:38:87:91:fd:94:11:0b:28:
                    84:c6:c2:2f:2a:fb:01:f9:36:7a:09:75:d1:33:88:
                    3c:73:41:5b:c8:bf:94:89:70:a1:f0:c0:b9:2e:50:
                    53:1e:b1:17:64:69:f4:2d:81:e0:a9:0d:0e:32:e9:
                    ba:55:8a:85:f1:1b:6f:49:79:b4:7f:88:c3:0d:3e:
                    54:88:9b:3d:1f:38:8c:04:f3:ee:6a:63:2b:f5:c6:
                    db:b4:83:aa:c4:78:41:3a:7d:4b:e1:c8:3e:71:ca:
                    1b:61:59:ea:c6:c4:ca:32:5e:c9:e9:bf:12:29:e6:
                    c6:c3:63:fe:a0:55:da:7a:f1:60:98:4d:26:ed:fa:
                    70:2d
                Exponent: 65537 (0x10001)
        X509v3 extensions:
            X509v3 Key Usage: 
                Digital Signature, Key Encipherment
            X509v3 Basic Constraints: 
                CA:FALSE
            Netscape Cert Type: 
                SSL Server
            Netscape Comment: 
                OpenSSL Generated Server Certificate
            X509v3 Subject Key Identifier: 
                53:3F:ED:5D:09:07:B3:65:7B:AB:45:C9:24:5B:09:77:80:0A:96:ED
            X509v3 Authority Key Identifier: 
                keyid:F4:A7:C0:CC:91:46:AF:64:F3:91:F2:27:F8:C8:B2:6F:8A:87:32:73
                DirName:/C=DE/ST=Hessen/O=privacyidea/CN=CA001
                serial:FB:C8:EB:AC:83:CD:12:07

            X509v3 Extended Key Usage: 
                TLS Web Server Authentication
    Signature Algorithm: sha256WithRSAEncryption
         58:63:fb:43:bd:c3:81:5f:1d:71:82:0a:f3:b2:f3:53:04:ce:
         67:91:77:e8:30:2d:7b:aa:57:88:16:72:9a:44:94:f6:d2:0a:
         9a:c9:a0:94:01:b1:ce:e2:76:8a:66:6f:b8:37:eb:f3:e6:3e:
         c9:3e:a3:b5:95:2f:e7:d2:2b:c5:c4:30:2e:0e:d4:23:da:7a:
         88:20:44:fb:a2:9f:5f:79:cd:12:66:a1:3a:9e:fe:de:a2:b9:
         8e:4e:48:84:39:40:0a:e0:9b:af:07:b5:78:1c:ae:16:06:04:
         30:60:cb:63:b0:01:78:bd:69:0c:8e:e4:a6:fc:17:31:2d:04:
         29:e2:9a:6b:94:e8:5f:51:7f:84:91:d9:49:01:7a:b3:2e:a6:
         3d:3c:4b:31:96:9e:3c:dc:fe:72:a0:73:02:e8:1e:48:bb:5b:
         2e:47:53:84:9b:4f:6b:7a:00:7c:e6:25:cf:21:ad:9f:07:69:
         9c:09:e7:bf:ee:da:59:01:aa:eb:92:17:6a:fd:e8:1b:40:51:
         ce:87:dc:53:e1:de:01:a6:52:67:66:80:1e:fa:55:af:6b:f4:
         20:b4:51:82:24:d1:62:83:d2:aa:77:6a:b0:68:92:67:2b:f3:
         a8:a2:a4:93:2f:02:4a:71:d3:fb:cd:eb:7e:2e:01:89:57:98:
         aa:3b:02:24
-----BEGIN CERTIFICATE-----
MIIEJjCCAw6gAwIBAgIEEAAA3TANBgkqhkiG9w0BAQsFADBEMQswCQYDVQQGEwJE
RTEPMA0GA1UECAwGSGVzc2VuMRQwEgYDVQQKDAtwcml2YWN5aWRlYTEOMAwGA1UE
AwwFQ0EwMDEwHhcNMTcwNDIyMTE1NTA1WhcNMTgwNDIyMTE1NTA1WjBUMQswCQYD
VQQGEwJERTEPMA0GA1UECAwGSGVzc2VuMRQwEgYDVQQKDAtwcml2YWN5aWRlYTEe
MBwGA1UEAwwVcmVxdWVzdGVyLmxvY2FsZG9tYWluMIIBIjANBgkqhkiG9w0BAQEF
AAOCAQ8AMIIBCgKCAQEAzb4UT/rOAT9CIhsdnK/dktJ/22y3PjlDQ2sTA/EF9Ad0
vHZpKAuvGY7X/OPNxljyyn8IbVP8BwJEJMa0NEyMBP4zDkDiILoCc1r39U9jbszG
tt9UHTc5fVE2Jl+93D+oi2uirrad1iHn30G4eigqaEjKqC3t4elGXlpybbSEOIeR
/ZQRCyiExsIvKvsB+TZ6CXXRM4g8c0FbyL+UiXCh8MC5LlBTHrEXZGn0LYHgqQ0O
Mum6VYqF8RtvSXm0f4jDDT5UiJs9HziMBPPuamMr9cbbtIOqxHhBOn1L4cg+ccob
YVnqxsTKMl7J6b8SKebGw2P+oFXaevFgmE0m7fpwLQIDAQABo4IBDjCCAQowCwYD
VR0PBAQDAgWgMAkGA1UdEwQCMAAwEQYJYIZIAYb4QgEBBAQDAgZAMDMGCWCGSAGG
+EIBDQQmFiRPcGVuU1NMIEdlbmVyYXRlZCBTZXJ2ZXIgQ2VydGlmaWNhdGUwHQYD
VR0OBBYEFFM/7V0JB7Nle6tFySRbCXeACpbtMHQGA1UdIwRtMGuAFPSnwMyRRq9k
85HyJ/jIsm+KhzJzoUikRjBEMQswCQYDVQQGEwJERTEPMA0GA1UECAwGSGVzc2Vu
MRQwEgYDVQQKDAtwcml2YWN5aWRlYTEOMAwGA1UEAwwFQ0EwMDGCCQD7yOusg80S
BzATBgNVHSUEDDAKBggrBgEFBQcDATANBgkqhkiG9w0BAQsFAAOCAQEAWGP7Q73D
gV8dcYIK87LzUwTOZ5F36DAte6pXiBZymkSU9tIKmsmglAGxzuJ2imZvuDfr8+Y+
yT6jtZUv59IrxcQwLg7UI9p6iCBE+6KfX3nNEmahOp7+3qK5jk5IhDlACuCbrwe1
eByuFgYEMGDLY7ABeL1pDI7kpvwXMS0EKeKaa5ToX1F/hJHZSQF6sy6mPTxLMZae
PNz+cqBzAugeSLtbLkdThJtPa3oAfOYlzyGtnwdpnAnnv+7aWQGq65IXav3oG0BR
zofcU+HeAaZSZ2aAHvpVr2v0ILRRgiTRYoPSqndqsGiSZyvzqKKkky8CSnHT+83r
fi4BiVeYqjsCJA==
-----END CERTIFICATE-----
