Certificate:
    Data:
        Version: 3 (0x2)
        Serial Number: 268435667 (0x100000d3)
    Signature Algorithm: sha256WithRSAEncryption
        Issuer: C=DE, ST=Hessen, O=privacyidea, CN=CA001
        Validity
            Not Before: Apr 25 15:02:57 2017 GMT
            Not After : Apr 25 15:02:57 2018 GMT
        Subject: CN=Steve Test/emailAddress=steve@openssl.org
        Subject Public Key Info:
            Public Key Algorithm: rsaEncryption
                Public-Key: (2048 bit)
                Modulus:
                    00:d2:81:89:20:51:48:0f:73:f4:11:32:24:d5:1f:
                    1c:fd:5c:f5:b6:e6:c5:f0:52:81:dc:d2:af:66:4a:
                    7c:93:31:61:5c:af:d1:6d:06:70:03:60:7c:72:0c:
                    88:dd:49:cd:9e:02:6c:d2:5a:d7:53:0f:f3:da:be:
                    69:64:b5:0f:0c:00:e3:b3:50:47:a3:b3:9b:ba:13:
                    50:d6:58:5a:4b:ab:39:e0:11:ca:0a:27:67:03:78:
                    22:66:6d:92:1e:1b:5c:49:ae:e6:6b:d1:8e:3b:9d:
                    06:d3:c6:ac:4d:53:43:10:ab:e8:96:c1:87:82:97:
                    99:8f:20:d3:99:12:37:31:84:e1:8a:ff:29:03:5f:
                    22:90:3e:7f:9b:e0:20:c1:ad:dc:ae:4c:39:1a:31:
                    96:17:02:8c:b2:d9:b4:0d:20:12:9b:7d:86:54:fd:
                    33:fd:c1:2a:62:46:f8:60:96:cf:6e:01:6f:22:df:
                    13:47:e7:97:ec:05:72:23:a3:62:f8:fa:ef:ac:9c:
                    72:f0:37:cb:2f:37:cf:90:a8:27:51:86:c6:d7:78:
                    08:8f:7e:25:a2:15:70:a2:fb:1c:b6:15:5e:a0:97:
                    8b:81:4c:09:28:8a:27:3b:94:bc:71:db:5b:71:37:
                    9a:2b:16:e0:6f:b5:c9:f5:4b:4f:20:ba:65:cf:af:
                    ad:ad
                Exponent: 65537 (0x10001)
        X509v3 extensions:
            X509v3 Key Usage: 
                Digital Signature, Key Encipherment
            X509v3 Basic Constraints: 
                CA:FALSE
            Netscape Cert Type: 
                SSL Server
            Netscape Comment: 
                OpenSSL Generated Server Certificate
            X509v3 Subject Key Identifier: 
                E5:25:6D:3E:AF:0D:DD:3F:4C:F2:45:19:39:D5:14:DB:7E:9C:C0:AD
            X509v3 Authority Key Identifier: 
                keyid:F4:A7:C0:CC:91:46:AF:64:F3:91:F2:27:F8:C8:B2:6F:8A:87:32:73
                DirName:/C=DE/ST=Hessen/O=privacyidea/CN=CA001
                serial:FB:C8:EB:AC:83:CD:12:07

            X509v3 Extended Key Usage: 
                TLS Web Server Authentication
    Signature Algorithm: sha256WithRSAEncryption
         2c:d2:ee:56:be:c1:0f:f5:0e:7d:27:a8:80:10:51:9f:bb:f1:
         06:50:2f:f7:66:b4:1c:cc:8e:80:78:6a:5a:a9:0e:d3:d2:4b:
         89:91:b7:64:8f:65:0f:56:a8:88:cb:b1:bf:1c:53:9d:54:63:
         8b:6e:16:f2:f4:d7:af:2e:11:c0:31:72:f7:86:45:e6:0d:e7:
         41:76:d3:1d:04:6d:ae:99:6c:40:54:66:08:d1:b4:9e:af:cd:
         e6:1a:4b:16:f5:7b:8b:35:0f:e5:73:b4:54:a4:9e:7e:20:71:
         03:84:fb:fa:94:6b:4f:2f:ad:fd:d5:d5:a9:8b:bc:5e:3a:f1:
         82:8f:cc:8f:8d:8a:e2:4e:d1:b7:74:64:d4:d7:26:5a:d6:84:
         ac:f0:b2:da:4e:31:b4:8b:a4:94:ee:9e:3f:75:59:1e:50:1b:
         56:b8:38:35:d1:93:da:70:af:e4:ce:f4:e4:76:ec:b2:94:c2:
         00:1b:d6:45:77:01:00:8c:29:6e:a6:92:90:91:da:0b:bf:29:
         7d:f9:8e:f0:56:5f:18:50:e9:99:b8:9b:b0:fb:c3:f4:6c:0e:
         9a:e3:62:57:49:81:0c:d2:13:25:50:54:46:cd:e7:ab:9b:50:
         bf:87:2d:3b:67:62:26:3b:a2:3f:19:63:42:8a:1c:fd:f4:ee:
         9c:35:00:09
-----BEGIN CERTIFICATE-----
MIIECTCCAvGgAwIBAgIEEAAA0zANBgkqhkiG9w0BAQsFADBEMQswCQYDVQQGEwJE
RTEPMA0GA1UECAwGSGVzc2VuMRQwEgYDVQQKDAtwcml2YWN5aWRlYTEOMAwGA1UE
AwwFQ0EwMDEwHhcNMTcwNDI1MTUwMjU3WhcNMTgwNDI1MTUwMjU3WjA3MRMwEQYD
VQQDDApTdGV2ZSBUZXN0MSAwHgYJKoZIhvcNAQkBFhFzdGV2ZUBvcGVuc3NsLm9y
ZzCCASIwDQYJKoZIhvcNAQEBBQADggEPADCCAQoCggEBANKBiSBRSA9z9BEyJNUf
HP1c9bbmxfBSgdzSr2ZKfJMxYVyv0W0GcANgfHIMiN1JzZ4CbNJa11MP89q+aWS1
DwwA47NQR6Ozm7oTUNZYWkurOeARygonZwN4ImZtkh4bXEmu5mvRjjudBtPGrE1T
QxCr6JbBh4KXmY8g05kSNzGE4Yr/KQNfIpA+f5vgIMGt3K5MORoxlhcCjLLZtA0g
Ept9hlT9M/3BKmJG+GCWz24BbyLfE0fnl+wFciOjYvj676yccvA3yy83z5CoJ1GG
xtd4CI9+JaIVcKL7HLYVXqCXi4FMCSiKJzuUvHHbW3E3misW4G+1yfVLTyC6Zc+v
ra0CAwEAAaOCAQ4wggEKMAsGA1UdDwQEAwIFoDAJBgNVHRMEAjAAMBEGCWCGSAGG
+EIBAQQEAwIGQDAzBglghkgBhvhCAQ0EJhYkT3BlblNTTCBHZW5lcmF0ZWQgU2Vy
dmVyIENlcnRpZmljYXRlMB0GA1UdDgQWBBTlJW0+rw3dP0zyRRk51RTbfpzArTB0
BgNVHSMEbTBrgBT0p8DMkUavZPOR8if4yLJviocyc6FIpEYwRDELMAkGA1UEBhMC
REUxDzANBgNVBAgMBkhlc3NlbjEUMBIGA1UECgwLcHJpdmFjeWlkZWExDjAMBgNV
BAMMBUNBMDAxggkA+8jrrIPNEgcwEwYDVR0lBAwwCgYIKwYBBQUHAwEwDQYJKoZI
hvcNAQELBQADggEBACzS7la+wQ/1Dn0nqIAQUZ+78QZQL/dmtBzMjoB4alqpDtPS
S4mRt2SPZQ9WqIjLsb8cU51UY4tuFvL0168uEcAxcveGReYN50F20x0Eba6ZbEBU
ZgjRtJ6vzeYaSxb1e4s1D+VztFSknn4gcQOE+/qUa08vrf3V1amLvF468YKPzI+N
iuJO0bd0ZNTXJlrWhKzwstpOMbSLpJTunj91WR5QG1a4ODXRk9pwr+TO9OR27LKU
wgAb1kV3AQCMKW6mkpCR2gu/KX35jvBWXxhQ6Zm4m7D7w/RsDprjYldJgQzSEyVQ
VEbN56ubUL+HLTtnYiY7oj8ZY0KKHP307pw1AAk=
-----END CERTIFICATE-----
