Certificate:
    Data:
        Version: 3 (0x2)
        Serial Number: 268435666 (0x100000d2)
    Signature Algorithm: sha256WithRSAEncryption
        Issuer: C=DE, ST=Hessen, O=privacyidea, CN=CA001
        Validity
            Not Before: Apr 25 15:02:56 2017 GMT
            Not After : Apr 25 15:02:56 2018 GMT
        Subject: C=DE, ST=Hessen, O=privacyidea, CN=usercert
        Subject Public Key Info:
            Public Key Algorithm: rsaEncryption
                Public-Key: (2048 bit)
                Modulus:
                    00:dc:2f:d1:5f:29:97:d4:7c:c3:53:c8:30:bd:4b:
                    67:70:2c:24:6b:b8:5e:eb:21:7a:48:12:56:7c:81:
                    5c:48:75:b6:68:eb:f6:f2:98:4e:50:51:d1:7f:6c:
                    73:f3:0a:a7:ae:be:48:5e:e5:d6:e1:d9:2a:7c:32:
                    6e:4e:fd:08:f6:5a:54:49:23:73:c3:b9:07:18:d1:
                    ef:b3:ac:f8:8a:dc:94:96:a4:90:3a:8e:74:df:e6:
                    0d:37:1b:bd:5b:b7:25:1a:56:39:da:6f:91:aa:5e:
                    1c:74:f3:f9:7c:14:01:83:12:65:76:c7:bb:fe:36:
                    5b:95:e9:72:65:83:ed:3e:98:30:71:fa:87:dd:a3:
                    36:5a:30:03:2e:26:e0:61:d1:bf:02:3f:b6:06:1f:
                    4a:89:28:1c:5c:a2:ff:4e:be:94:e6:8c:e0:da:82:
                    f1:9d:29:32:48:30:73:b4:04:f6:42:1e:be:f7:e2:
                    32:32:27:3c:9d:89:2f:70:3e:85:9a:6f:5c:c5:09:
                    c0:8c:32:2f:72:22:c9:d2:95:1f:b6:ac:72:60:72:
                    b7:82:4d:6b:ce:5b:e3:00:d0:d2:2f:58:c6:e0:10:
                    e5:51:ca:4d:3b:2e:e6:7e:ab:84:d6:56:f1:93:35:
                    a0:93:64:26:81:75:2f:91:b5:16:06:38:0b:db:cc:
                    2d:07
                Exponent: 65537 (0x10001)
        X509v3 extensions:
            X509v3 Key Usage: 
                Digital Signature, Key Encipherment
            X509v3 Basic Constraints: 
                CA:FALSE
            Netscape Cert Type: 
                SSL Server
            Netscape Comment: 
                OpenSSL Generated Server Certificate
            X509v3 Subject Key Identifier: 
                FC:14:D1:F0:4B:8D:00:90:F2:F5:B8:71:9E:4E:97:C3:92:54:AD:0B
            X509v3 Authority Key Identifier: 
                keyid:F4:A7:C0:CC:91:46:AF:64:F3:91:F2:27:F8:C8:B2:6F:8A:87:32:73
                DirName:/C=DE/ST=Hessen/O=privacyidea/CN=CA001
                serial:FB:C8:EB:AC:83:CD:12:07

            X509v3 Extended Key Usage: 
                TLS Web Server Authentication
    Signature Algorithm: sha256WithRSAEncryption
         39:a1:ed:fb:a4:52:72:9e:ef:95:98:bd:5a:73:5a:2a:c1:d5:
         60:be:98:24:f8:19:3a:ad:0c:30:93:e5:23:44:2c:6c:06:fd:
         9a:d3:69:17:e5:f5:63:dc:31:3c:97:1c:f7:4c:a1:24:a7:cd:
         78:dd:2d:36:50:62:07:2f:5b:e5:1c:fa:a0:14:94:88:ae:1c:
         9c:3c:ed:5a:dc:cd:1e:f1:45:e1:c2:ad:27:bc:5d:f7:c9:9b:
         fb:ba:8b:d4:7b:33:ed:1a:61:89:64:b2:db:45:6c:6a:5e:ab:
         c0:f9:7c:c0:26:81:68:3c:64:4e:67:07:dc:44:39:26:59:a5:
         4b:fa:0a:d3:69:dc:e4:1e:fb:eb:e8:c6:35:7d:26:6b:14:e7:
         bc:75:77:2a:50:26:37:79:ee:29:e4:c0:57:af:0f:03:f5:17:
         5a:be:99:50:31:e6:99:58:67:30:e4:16:9a:f8:88:4e:0a:e0:
         5f:aa:9a:0e:c3:14:f4:32:e3:27:eb:f0:8f:db:7c:56:f4:f0:
         3e:27:e0:8b:3a:b8:64:6c:13:78:2a:7f:73:d1:21:8d:4e:fe:
         6a:ef:c3:3e:b2:23:69:1a:82:2f:7f:f2:e6:ef:38:5c:ab:1b:
         22:67:03:94:64:ed:c0:91:45:47:b5:df:09:e5:41:34:ad:a6:
         52:02:52:26
-----BEGIN CERTIFICATE-----
MIIEGTCCAwGgAwIBAgIEEAAA0jANBgkqhkiG9w0BAQsFADBEMQswCQYDVQQGEwJE
RTEPMA0GA1UECAwGSGVzc2VuMRQwEgYDVQQKDAtwcml2YWN5aWRlYTEOMAwGA1UE
AwwFQ0EwMDEwHhcNMTcwNDI1MTUwMjU2WhcNMTgwNDI1MTUwMjU2WjBHMQswCQYD
VQQGEwJERTEPMA0GA1UECAwGSGVzc2VuMRQwEgYDVQQKDAtwcml2YWN5aWRlYTER
MA8GA1UEAwwIdXNlcmNlcnQwggEiMA0GCSqGSIb3DQEBAQUAA4IBDwAwggEKAoIB
AQDcL9FfKZfUfMNTyDC9S2dwLCRruF7rIXpIElZ8gVxIdbZo6/bymE5QUdF/bHPz
Cqeuvkhe5dbh2Sp8Mm5O/Qj2WlRJI3PDuQcY0e+zrPiK3JSWpJA6jnTf5g03G71b
tyUaVjnab5GqXhx08/l8FAGDEmV2x7v+NluV6XJlg+0+mDBx+ofdozZaMAMuJuBh
0b8CP7YGH0qJKBxcov9OvpTmjODagvGdKTJIMHO0BPZCHr734jIyJzydiS9wPoWa
b1zFCcCMMi9yIsnSlR+2rHJgcreCTWvOW+MA0NIvWMbgEOVRyk07LuZ+q4TWVvGT
NaCTZCaBdS+RtRYGOAvbzC0HAgMBAAGjggEOMIIBCjALBgNVHQ8EBAMCBaAwCQYD
VR0TBAIwADARBglghkgBhvhCAQEEBAMCBkAwMwYJYIZIAYb4QgENBCYWJE9wZW5T
U0wgR2VuZXJhdGVkIFNlcnZlciBDZXJ0aWZpY2F0ZTAdBgNVHQ4EFgQU/BTR8EuN
AJDy9bhxnk6Xw5JUrQswdAYDVR0jBG0wa4AU9KfAzJFGr2TzkfIn+Miyb4qHMnOh
SKRGMEQxCzAJBgNVBAYTAkRFMQ8wDQYDVQQIDAZIZXNzZW4xFDASBgNVBAoMC3By
aXZhY3lpZGVhMQ4wDAYDVQQDDAVDQTAwMYIJAPvI66yDzRIHMBMGA1UdJQQMMAoG
CCsGAQUFBwMBMA0GCSqGSIb3DQEBCwUAA4IBAQA5oe37pFJynu+VmL1ac1oqwdVg
vpgk+Bk6rQwwk+UjRCxsBv2a02kX5fVj3DE8lxz3TKEkp8143S02UGIHL1vlHPqg
FJSIrhycPO1a3M0e8UXhwq0nvF33yZv7uovUezPtGmGJZLLbRWxqXqvA+XzAJoFo
PGROZwfcRDkmWaVL+grTadzkHvvr6MY1fSZrFOe8dXcqUCY3ee4p5MBXrw8D9Rda
vplQMeaZWGcw5Baa+IhOCuBfqpoOwxT0MuMn6/CP23xW9PA+J+CLOrhkbBN4Kn9z
0SGNTv5q78M+siNpGoIvf/Lm7zhcqxsiZwOUZO3AkUVHtd8J5UE0raZSAlIm
-----END CERTIFICATE-----
